Archive member included to satisfy reference by file (symbol)

../app/libapp.a(led.c.obj)    (--whole-archive)
../app/libapp.a(syscall.c.obj)
                              (--whole-archive)
../app/libapp.a(main.c.obj)   (--whole-archive)
../app/libapp.a(utilities.c.obj)
                              (--whole-archive)
libzephyr.a(crc32_sw.c.obj)   (--whole-archive)
libzephyr.a(crc16_sw.c.obj)   (--whole-archive)
libzephyr.a(crc8_sw.c.obj)    (--whole-archive)
libzephyr.a(crc7_sw.c.obj)    (--whole-archive)
libzephyr.a(dec.c.obj)        (--whole-archive)
libzephyr.a(fdtable.c.obj)    (--whole-archive)
libzephyr.a(hex.c.obj)        (--whole-archive)
libzephyr.a(mempool.c.obj)    (--whole-archive)
libzephyr.a(notify.c.obj)     (--whole-archive)
libzephyr.a(printk.c.obj)     (--whole-archive)
libzephyr.a(onoff.c.obj)      (--whole-archive)
libzephyr.a(rb.c.obj)         (--whole-archive)
libzephyr.a(sem.c.obj)        (--whole-archive)
libzephyr.a(thread_entry.c.obj)
                              (--whole-archive)
libzephyr.a(timeutil.c.obj)   (--whole-archive)
libzephyr.a(work_q.c.obj)     (--whole-archive)
libzephyr.a(heap.c.obj)       (--whole-archive)
libzephyr.a(heap-validate.c.obj)
                              (--whole-archive)
libzephyr.a(mutex.c.obj)      (--whole-archive)
libzephyr.a(configs.c.obj)    (--whole-archive)
libzephyr.a(validate_base_addresses.c.obj)
                              (--whole-archive)
libzephyr.a(validate_enabled_instances.c.obj)
                              (--whole-archive)
libzephyr.a(log_list.c.obj)   (--whole-archive)
libzephyr.a(log_core.c.obj)   (--whole-archive)
libzephyr.a(log_msg.c.obj)    (--whole-archive)
libzephyr.a(log_output.c.obj)
                              (--whole-archive)
libzephyr.a(log_backend_uart.c.obj)
                              (--whole-archive)
libzephyr.a(log_backend_rtt.c.obj)
                              (--whole-archive)
libzephyr.a(power.c.obj)      (--whole-archive)
libzephyr.a(policy_residency.c.obj)
                              (--whole-archive)
libzephyr.a(uart_console.c.obj)
                              (--whole-archive)
libzephyr.a(nrf_power_clock.c.obj)
                              (--whole-archive)
libzephyr.a(sys_clock_init.c.obj)
                              (--whole-archive)
libzephyr.a(nrf_rtc_timer.c.obj)
                              (--whole-archive)
libzephyr.a(SEGGER_RTT.c.obj)
                              (--whole-archive)
libzephyr.a(SEGGER_RTT_zephyr.c.obj)
                              (--whole-archive)
arch/common/libarch__common.a(isr_tables.c.obj)
                              (--whole-archive)
arch/common/libarch__common.a(sw_isr_common.c.obj)
                              (--whole-archive)
arch/arch/arm/core/aarch32/libarch__arm__core__aarch32.a(swap.c.obj)
                              (--whole-archive)
arch/arch/arm/core/aarch32/libarch__arm__core__aarch32.a(swap_helper.S.obj)
                              (--whole-archive)
arch/arch/arm/core/aarch32/libarch__arm__core__aarch32.a(irq_manage.c.obj)
                              (--whole-archive)
arch/arch/arm/core/aarch32/libarch__arm__core__aarch32.a(thread.c.obj)
                              (--whole-archive)
arch/arch/arm/core/aarch32/libarch__arm__core__aarch32.a(cpu_idle.S.obj)
                              (--whole-archive)
arch/arch/arm/core/aarch32/libarch__arm__core__aarch32.a(fatal.c.obj)
                              (--whole-archive)
arch/arch/arm/core/aarch32/libarch__arm__core__aarch32.a(nmi.c.obj)
                              (--whole-archive)
arch/arch/arm/core/aarch32/libarch__arm__core__aarch32.a(nmi_on_reset.S.obj)
                              (--whole-archive)
arch/arch/arm/core/aarch32/libarch__arm__core__aarch32.a(prep_c.c.obj)
                              (--whole-archive)
arch/arch/arm/core/aarch32/libarch__arm__core__aarch32.a(isr_wrapper.S.obj)
                              (--whole-archive)
arch/arch/arm/core/aarch32/libarch__arm__core__aarch32.a(userspace.S.obj)
                              (--whole-archive)
arch/arch/arm/core/aarch32/cortex_m/libarch__arm__core__aarch32__cortex_m.a(vector_table.S.obj)
                              (--whole-archive)
arch/arch/arm/core/aarch32/cortex_m/libarch__arm__core__aarch32__cortex_m.a(reset.S.obj)
                              (--whole-archive)
arch/arch/arm/core/aarch32/cortex_m/libarch__arm__core__aarch32__cortex_m.a(fault_s.S.obj)
                              (--whole-archive)
arch/arch/arm/core/aarch32/cortex_m/libarch__arm__core__aarch32__cortex_m.a(fault.c.obj)
                              (--whole-archive)
arch/arch/arm/core/aarch32/cortex_m/libarch__arm__core__aarch32__cortex_m.a(exc_exit.S.obj)
                              (--whole-archive)
arch/arch/arm/core/aarch32/cortex_m/libarch__arm__core__aarch32__cortex_m.a(scb.c.obj)
                              (--whole-archive)
arch/arch/arm/core/aarch32/cortex_m/libarch__arm__core__aarch32__cortex_m.a(irq_init.c.obj)
                              (--whole-archive)
arch/arch/arm/core/aarch32/cortex_m/libarch__arm__core__aarch32__cortex_m.a(thread_abort.c.obj)
                              (--whole-archive)
arch/arch/arm/core/aarch32/cortex_m/mpu/libarch__arm__core__aarch32__cortex_m__mpu.a(arm_core_mpu.c.obj)
                              (--whole-archive)
arch/arch/arm/core/aarch32/cortex_m/mpu/libarch__arm__core__aarch32__cortex_m__mpu.a(arm_mpu.c.obj)
                              (--whole-archive)
lib/libc/minimal/liblib__libc__minimal.a(atoi.c.obj)
                              (--whole-archive)
lib/libc/minimal/liblib__libc__minimal.a(strtol.c.obj)
                              (--whole-archive)
lib/libc/minimal/liblib__libc__minimal.a(strtoul.c.obj)
                              (--whole-archive)
lib/libc/minimal/liblib__libc__minimal.a(malloc.c.obj)
                              (--whole-archive)
lib/libc/minimal/liblib__libc__minimal.a(bsearch.c.obj)
                              (--whole-archive)
lib/libc/minimal/liblib__libc__minimal.a(exit.c.obj)
                              (--whole-archive)
lib/libc/minimal/liblib__libc__minimal.a(strncasecmp.c.obj)
                              (--whole-archive)
lib/libc/minimal/liblib__libc__minimal.a(strstr.c.obj)
                              (--whole-archive)
lib/libc/minimal/liblib__libc__minimal.a(string.c.obj)
                              (--whole-archive)
lib/libc/minimal/liblib__libc__minimal.a(strspn.c.obj)
                              (--whole-archive)
lib/libc/minimal/liblib__libc__minimal.a(prf.c.obj)
                              (--whole-archive)
lib/libc/minimal/liblib__libc__minimal.a(stdout_console.c.obj)
                              (--whole-archive)
lib/libc/minimal/liblib__libc__minimal.a(sprintf.c.obj)
                              (--whole-archive)
lib/libc/minimal/liblib__libc__minimal.a(fprintf.c.obj)
                              (--whole-archive)
lib/libc/minimal/liblib__libc__minimal.a(gmtime.c.obj)
                              (--whole-archive)
lib/posix/liblib__posix.a(pthread_common.c.obj)
                              (--whole-archive)
soc/arm/common/cortex_m/libsoc__arm__common__cortex_m.a(arm_mpu_regions.c.obj)
                              (--whole-archive)
soc/arm/nordic_nrf/nrf52/libsoc__arm__nordic_nrf__nrf52.a(soc.c.obj)
                              (--whole-archive)
soc/arm/nordic_nrf/nrf52/libsoc__arm__nordic_nrf__nrf52.a(power.c.obj)
                              (--whole-archive)
drivers/gpio/libdrivers__gpio.a(gpio_nrfx.c.obj)
                              (--whole-archive)
drivers/gpio/libdrivers__gpio.a(gpio_handlers.c.obj)
                              (--whole-archive)
drivers/serial/libdrivers__serial.a(uart_nrfx_uart.c.obj)
                              (--whole-archive)
drivers/serial/libdrivers__serial.a(uart_nrfx_uarte.c.obj)
                              (--whole-archive)
drivers/serial/libdrivers__serial.a(uart_handlers.c.obj)
                              (--whole-archive)
../modules/nordic/lib..__modules__hal__nordic.a(system_nrf52840.c.obj)
                              (--whole-archive)
../modules/nordic/lib..__modules__hal__nordic.a(nrfx_glue.c.obj)
                              (--whole-archive)
kernel/libkernel.a(device.c.obj)
                              ../app/libapp.a(led.c.obj) (z_impl_device_get_binding)
kernel/libkernel.a(errno.c.obj)
                              libzephyr.a(fdtable.c.obj) (z_impl_z_errno)
kernel/libkernel.a(fatal.c.obj)
                              arch/arch/arm/core/aarch32/libarch__arm__core__aarch32.a(fatal.c.obj) (z_fatal_error)
kernel/libkernel.a(idle.c.obj)
                              arch/arch/arm/core/aarch32/libarch__arm__core__aarch32.a(irq_manage.c.obj) (z_sys_power_save_idle_exit)
kernel/libkernel.a(init.c.obj)
                              arch/arch/arm/core/aarch32/libarch__arm__core__aarch32.a(prep_c.c.obj) (z_bss_zero)
kernel/libkernel.a(mem_slab.c.obj)
                              libzephyr.a(log_core.c.obj) (k_mem_slab_init)
kernel/libkernel.a(mutex.c.obj)
                              libzephyr.a(fdtable.c.obj) (z_impl_k_mutex_lock)
kernel/libkernel.a(queue.c.obj)
                              libzephyr.a(work_q.c.obj) (z_impl_k_queue_init)
kernel/libkernel.a(sched.c.obj)
                              kernel/libkernel.a(mem_slab.c.obj) (z_reschedule)
kernel/libkernel.a(sem.c.obj)
                              libzephyr.a(log_core.c.obj) (z_impl_k_sem_give)
kernel/libkernel.a(thread.c.obj)
                              drivers/serial/libdrivers__serial.a(uart_nrfx_uart.c.obj) (k_is_in_isr)
kernel/libkernel.a(timeout.c.obj)
                              kernel/libkernel.a(sched.c.obj) (z_add_timeout)
kernel/libkernel.a(timer.c.obj)
                              libzephyr.a(log_core.c.obj) (k_timer_init)
kernel/libkernel.a(futex.c.obj)
                              libzephyr.a(sem.c.obj) (z_impl_k_futex_wake)
kernel/libkernel.a(mem_domain.c.obj)
                              kernel/libkernel.a(thread.c.obj) (k_mem_domain_add_thread)
kernel/libkernel.a(userspace.c.obj)
                              arch/arch/arm/core/aarch32/libarch__arm__core__aarch32.a(thread.c.obj) (z_priv_stack_find)
kernel/libkernel.a(mempool.c.obj)
                              kernel/libkernel.a(queue.c.obj) (k_free)
kernel/libkernel.a(userspace_handler.c.obj)
                              kernel/libkernel.a(userspace.c.obj) (z_mrsh_k_object_access_grant)
kernel/libkernel.a(kheap.c.obj)
                              kernel/libkernel.a(mempool.c.obj) (k_mem_pool_alloc)
/home/rgujju/zephyr-sdk/arm-zephyr-eabi/bin/../lib/gcc/arm-zephyr-eabi/9.2.0/thumb/v7e-m/nofp/libgcc.a(_aeabi_ldivmod.o)
                              libzephyr.a(timeutil.c.obj) (__aeabi_ldivmod)
/home/rgujju/zephyr-sdk/arm-zephyr-eabi/bin/../lib/gcc/arm-zephyr-eabi/9.2.0/thumb/v7e-m/nofp/libgcc.a(_aeabi_uldivmod.o)
                              lib/libc/minimal/liblib__libc__minimal.a(gmtime.c.obj) (__aeabi_uldivmod)
/home/rgujju/zephyr-sdk/arm-zephyr-eabi/bin/../lib/gcc/arm-zephyr-eabi/9.2.0/thumb/v7e-m/nofp/libgcc.a(_udivmoddi4.o)
                              /home/rgujju/zephyr-sdk/arm-zephyr-eabi/bin/../lib/gcc/arm-zephyr-eabi/9.2.0/thumb/v7e-m/nofp/libgcc.a(_aeabi_ldivmod.o) (__udivmoddi4)
/home/rgujju/zephyr-sdk/arm-zephyr-eabi/bin/../lib/gcc/arm-zephyr-eabi/9.2.0/thumb/v7e-m/nofp/libgcc.a(_dvmd_tls.o)
                              /home/rgujju/zephyr-sdk/arm-zephyr-eabi/bin/../lib/gcc/arm-zephyr-eabi/9.2.0/thumb/v7e-m/nofp/libgcc.a(_aeabi_ldivmod.o) (__aeabi_ldiv0)

Discarded input sections

 .text          0x0000000000000000        0x0 CMakeFiles/app_smem_unaligned_prebuilt.dir/misc/empty_file.c.obj
 .data          0x0000000000000000        0x0 CMakeFiles/app_smem_unaligned_prebuilt.dir/misc/empty_file.c.obj
 .bss           0x0000000000000000        0x0 CMakeFiles/app_smem_unaligned_prebuilt.dir/misc/empty_file.c.obj
 .debug_line    0x0000000000000000        0x0 CMakeFiles/app_smem_unaligned_prebuilt.dir/misc/empty_file.c.obj
 .debug_str     0x0000000000000000      0x1a5 CMakeFiles/app_smem_unaligned_prebuilt.dir/misc/empty_file.c.obj
 .comment       0x0000000000000000       0x33 CMakeFiles/app_smem_unaligned_prebuilt.dir/misc/empty_file.c.obj
 .text          0x0000000000000000        0x0 ../app/libapp.a(led.c.obj)
 .data          0x0000000000000000        0x0 ../app/libapp.a(led.c.obj)
 .bss           0x0000000000000000        0x0 ../app/libapp.a(led.c.obj)
 .text          0x0000000000000000        0x0 ../app/libapp.a(syscall.c.obj)
 .data          0x0000000000000000        0x0 ../app/libapp.a(syscall.c.obj)
 .bss           0x0000000000000000        0x0 ../app/libapp.a(syscall.c.obj)
 .debug_line    0x0000000000000000        0x0 ../app/libapp.a(syscall.c.obj)
 .debug_str     0x0000000000000000      0x19f ../app/libapp.a(syscall.c.obj)
 .comment       0x0000000000000000       0x33 ../app/libapp.a(syscall.c.obj)
 .text          0x0000000000000000        0x0 ../app/libapp.a(main.c.obj)
 .data          0x0000000000000000        0x0 ../app/libapp.a(main.c.obj)
 .bss           0x0000000000000000        0x0 ../app/libapp.a(main.c.obj)
 .rodata.app    0x0000000000000000       0xd8 ../app/libapp.a(main.c.obj)
 .text          0x0000000000000000        0x0 ../app/libapp.a(utilities.c.obj)
 .data          0x0000000000000000        0x0 ../app/libapp.a(utilities.c.obj)
 .bss           0x0000000000000000        0x0 ../app/libapp.a(utilities.c.obj)
 .debug_info    0x0000000000000000       0x64 ../app/libapp.a(utilities.c.obj)
 .debug_abbrev  0x0000000000000000       0x26 ../app/libapp.a(utilities.c.obj)
 .debug_aranges
                0x0000000000000000       0x18 ../app/libapp.a(utilities.c.obj)
 .debug_line    0x0000000000000000       0x1d ../app/libapp.a(utilities.c.obj)
 .debug_str     0x0000000000000000      0x216 ../app/libapp.a(utilities.c.obj)
 .comment       0x0000000000000000       0x33 ../app/libapp.a(utilities.c.obj)
 .text          0x0000000000000000        0x0 libzephyr.a(crc32_sw.c.obj)
 .data          0x0000000000000000        0x0 libzephyr.a(crc32_sw.c.obj)
 .bss           0x0000000000000000        0x0 libzephyr.a(crc32_sw.c.obj)
 .text.crc32_ieee_update
                0x0000000000000000       0x30 libzephyr.a(crc32_sw.c.obj)
 .text.crc32_ieee
                0x0000000000000000        0xa libzephyr.a(crc32_sw.c.obj)
 .debug_info    0x0000000000000000      0x17e libzephyr.a(crc32_sw.c.obj)
 .debug_abbrev  0x0000000000000000       0xe0 libzephyr.a(crc32_sw.c.obj)
 .debug_loc     0x0000000000000000      0x151 libzephyr.a(crc32_sw.c.obj)
 .debug_aranges
                0x0000000000000000       0x28 libzephyr.a(crc32_sw.c.obj)
 .debug_ranges  0x0000000000000000       0x58 libzephyr.a(crc32_sw.c.obj)
 .debug_line    0x0000000000000000      0x1e4 libzephyr.a(crc32_sw.c.obj)
 .debug_str     0x0000000000000000      0x25d libzephyr.a(crc32_sw.c.obj)
 .comment       0x0000000000000000       0x33 libzephyr.a(crc32_sw.c.obj)
 .debug_frame   0x0000000000000000       0x3c libzephyr.a(crc32_sw.c.obj)
 .text          0x0000000000000000        0x0 libzephyr.a(crc16_sw.c.obj)
 .data          0x0000000000000000        0x0 libzephyr.a(crc16_sw.c.obj)
 .bss           0x0000000000000000        0x0 libzephyr.a(crc16_sw.c.obj)
 .text.crc16    0x0000000000000000       0x5a libzephyr.a(crc16_sw.c.obj)
 .text.crc16_ccitt
                0x0000000000000000       0x26 libzephyr.a(crc16_sw.c.obj)
 .text.crc16_itu_t
                0x0000000000000000       0x28 libzephyr.a(crc16_sw.c.obj)
 .debug_info    0x0000000000000000      0x257 libzephyr.a(crc16_sw.c.obj)
 .debug_abbrev  0x0000000000000000       0xe9 libzephyr.a(crc16_sw.c.obj)
 .debug_loc     0x0000000000000000      0x2d2 libzephyr.a(crc16_sw.c.obj)
 .debug_aranges
                0x0000000000000000       0x30 libzephyr.a(crc16_sw.c.obj)
 .debug_ranges  0x0000000000000000       0x40 libzephyr.a(crc16_sw.c.obj)
 .debug_line    0x0000000000000000      0x310 libzephyr.a(crc16_sw.c.obj)
 .debug_str     0x0000000000000000      0x28c libzephyr.a(crc16_sw.c.obj)
 .comment       0x0000000000000000       0x33 libzephyr.a(crc16_sw.c.obj)
 .debug_frame   0x0000000000000000       0x58 libzephyr.a(crc16_sw.c.obj)
 .text          0x0000000000000000        0x0 libzephyr.a(crc8_sw.c.obj)
 .data          0x0000000000000000        0x0 libzephyr.a(crc8_sw.c.obj)
 .bss           0x0000000000000000        0x0 libzephyr.a(crc8_sw.c.obj)
 .text.crc8_ccitt
                0x0000000000000000       0x30 libzephyr.a(crc8_sw.c.obj)
 .text.crc8     0x0000000000000000       0x3e libzephyr.a(crc8_sw.c.obj)
 .rodata.crc8_ccitt_small_table
                0x0000000000000000       0x10 libzephyr.a(crc8_sw.c.obj)
 .debug_info    0x0000000000000000      0x1f0 libzephyr.a(crc8_sw.c.obj)
 .debug_abbrev  0x0000000000000000       0xdc libzephyr.a(crc8_sw.c.obj)
 .debug_loc     0x0000000000000000      0x243 libzephyr.a(crc8_sw.c.obj)
 .debug_aranges
                0x0000000000000000       0x28 libzephyr.a(crc8_sw.c.obj)
 .debug_ranges  0x0000000000000000       0x18 libzephyr.a(crc8_sw.c.obj)
 .debug_line    0x0000000000000000      0x250 libzephyr.a(crc8_sw.c.obj)
 .debug_str     0x0000000000000000      0x283 libzephyr.a(crc8_sw.c.obj)
 .comment       0x0000000000000000       0x33 libzephyr.a(crc8_sw.c.obj)
 .debug_frame   0x0000000000000000       0x48 libzephyr.a(crc8_sw.c.obj)
 .text          0x0000000000000000        0x0 libzephyr.a(crc7_sw.c.obj)
 .data          0x0000000000000000        0x0 libzephyr.a(crc7_sw.c.obj)
 .bss           0x0000000000000000        0x0 libzephyr.a(crc7_sw.c.obj)
 .text.crc7_be  0x0000000000000000       0x20 libzephyr.a(crc7_sw.c.obj)
 .debug_info    0x0000000000000000      0x114 libzephyr.a(crc7_sw.c.obj)
 .debug_abbrev  0x0000000000000000       0xac libzephyr.a(crc7_sw.c.obj)
 .debug_loc     0x0000000000000000       0xc0 libzephyr.a(crc7_sw.c.obj)
 .debug_aranges
                0x0000000000000000       0x20 libzephyr.a(crc7_sw.c.obj)
 .debug_ranges  0x0000000000000000       0x10 libzephyr.a(crc7_sw.c.obj)
 .debug_line    0x0000000000000000      0x168 libzephyr.a(crc7_sw.c.obj)
 .debug_str     0x0000000000000000      0x241 libzephyr.a(crc7_sw.c.obj)
 .comment       0x0000000000000000       0x33 libzephyr.a(crc7_sw.c.obj)
 .debug_frame   0x0000000000000000       0x20 libzephyr.a(crc7_sw.c.obj)
 .text          0x0000000000000000        0x0 libzephyr.a(dec.c.obj)
 .data          0x0000000000000000        0x0 libzephyr.a(dec.c.obj)
 .bss           0x0000000000000000        0x0 libzephyr.a(dec.c.obj)
 .text.u8_to_dec
                0x0000000000000000       0x42 libzephyr.a(dec.c.obj)
 .debug_info    0x0000000000000000      0x118 libzephyr.a(dec.c.obj)
 .debug_abbrev  0x0000000000000000       0x9c libzephyr.a(dec.c.obj)
 .debug_loc     0x0000000000000000       0xfa libzephyr.a(dec.c.obj)
 .debug_aranges
                0x0000000000000000       0x20 libzephyr.a(dec.c.obj)
 .debug_ranges  0x0000000000000000       0x10 libzephyr.a(dec.c.obj)
 .debug_line    0x0000000000000000      0x16c libzephyr.a(dec.c.obj)
 .debug_str     0x0000000000000000      0x25e libzephyr.a(dec.c.obj)
 .comment       0x0000000000000000       0x33 libzephyr.a(dec.c.obj)
 .debug_frame   0x0000000000000000       0x30 libzephyr.a(dec.c.obj)
 .text          0x0000000000000000        0x0 libzephyr.a(fdtable.c.obj)
 .data          0x0000000000000000        0x0 libzephyr.a(fdtable.c.obj)
 .bss           0x0000000000000000        0x0 libzephyr.a(fdtable.c.obj)
 .text.arch_is_user_context
                0x0000000000000000       0x14 libzephyr.a(fdtable.c.obj)
 .text.z_errno  0x0000000000000000       0x1a libzephyr.a(fdtable.c.obj)
 .text._check_fd
                0x0000000000000000       0x28 libzephyr.a(fdtable.c.obj)
 .text.z_get_fd_obj
                0x0000000000000000       0x34 libzephyr.a(fdtable.c.obj)
 .text.z_get_fd_obj_and_vtable
                0x0000000000000000       0x28 libzephyr.a(fdtable.c.obj)
 .text.z_reserve_fd
                0x0000000000000000       0x6c libzephyr.a(fdtable.c.obj)
 .text.z_finalize_fd
                0x0000000000000000       0x14 libzephyr.a(fdtable.c.obj)
 .text.z_free_fd
                0x0000000000000000       0x10 libzephyr.a(fdtable.c.obj)
 .text.z_alloc_fd
                0x0000000000000000       0x20 libzephyr.a(fdtable.c.obj)
 .bss.fdtable   0x0000000000000000       0x20 libzephyr.a(fdtable.c.obj)
 .text          0x0000000000000000        0x0 libzephyr.a(hex.c.obj)
 .data          0x0000000000000000        0x0 libzephyr.a(hex.c.obj)
 .bss           0x0000000000000000        0x0 libzephyr.a(hex.c.obj)
 .text.char2hex
                0x0000000000000000       0x30 libzephyr.a(hex.c.obj)
 .text.hex2char
                0x0000000000000000       0x1e libzephyr.a(hex.c.obj)
 .text.bin2hex  0x0000000000000000       0x5a libzephyr.a(hex.c.obj)
 .text.hex2bin  0x0000000000000000       0x74 libzephyr.a(hex.c.obj)
 .debug_info    0x0000000000000000      0x448 libzephyr.a(hex.c.obj)
 .debug_abbrev  0x0000000000000000      0x1f3 libzephyr.a(hex.c.obj)
 .debug_loc     0x0000000000000000      0x35f libzephyr.a(hex.c.obj)
 .debug_aranges
                0x0000000000000000       0x38 libzephyr.a(hex.c.obj)
 .debug_ranges  0x0000000000000000       0x40 libzephyr.a(hex.c.obj)
 .debug_line    0x0000000000000000      0x569 libzephyr.a(hex.c.obj)
 .debug_str     0x0000000000000000      0x337 libzephyr.a(hex.c.obj)
 .comment       0x0000000000000000       0x33 libzephyr.a(hex.c.obj)
 .debug_frame   0x0000000000000000       0x78 libzephyr.a(hex.c.obj)
 .text          0x0000000000000000        0x0 libzephyr.a(mempool.c.obj)
 .data          0x0000000000000000        0x0 libzephyr.a(mempool.c.obj)
 .bss           0x0000000000000000        0x0 libzephyr.a(mempool.c.obj)
 .text.get_bit_ptr
                0x0000000000000000       0x30 libzephyr.a(mempool.c.obj)
 .text.pool_irq_lock.isra.0.part.0
                0x0000000000000000       0x12 libzephyr.a(mempool.c.obj)
 .text.pool_irq_unlock.isra.0
                0x0000000000000000        0xe libzephyr.a(mempool.c.obj)
 .text.z_sys_mutex_kernel_lock.constprop.0
                0x0000000000000000       0x2e libzephyr.a(mempool.c.obj)
 .text.z_sys_mutex_kernel_unlock
                0x0000000000000000       0x2a libzephyr.a(mempool.c.obj)
 .text.z_sys_mem_pool_base_init
                0x0000000000000000       0x88 libzephyr.a(mempool.c.obj)
 .text.z_sys_mem_pool_block_alloc
                0x0000000000000000      0x170 libzephyr.a(mempool.c.obj)
 .text.z_sys_mem_pool_block_free
                0x0000000000000000      0x128 libzephyr.a(mempool.c.obj)
 .text.sys_mem_pool_alloc
                0x0000000000000000       0x54 libzephyr.a(mempool.c.obj)
 .text.sys_mem_pool_free
                0x0000000000000000       0x3c libzephyr.a(mempool.c.obj)
 .text.sys_mem_pool_try_expand_inplace
                0x0000000000000000       0x2c libzephyr.a(mempool.c.obj)
 .debug_info    0x0000000000000000     0x207b libzephyr.a(mempool.c.obj)
 .debug_abbrev  0x0000000000000000      0x592 libzephyr.a(mempool.c.obj)
 .debug_loc     0x0000000000000000     0x125e libzephyr.a(mempool.c.obj)
 .debug_aranges
                0x0000000000000000       0x70 libzephyr.a(mempool.c.obj)
 .debug_ranges  0x0000000000000000      0x3c8 libzephyr.a(mempool.c.obj)
 .debug_line    0x0000000000000000      0xfe8 libzephyr.a(mempool.c.obj)
 .debug_str     0x0000000000000000      0xb7f libzephyr.a(mempool.c.obj)
 .comment       0x0000000000000000       0x33 libzephyr.a(mempool.c.obj)
 .debug_frame   0x0000000000000000      0x188 libzephyr.a(mempool.c.obj)
 .text          0x0000000000000000        0x0 libzephyr.a(notify.c.obj)
 .data          0x0000000000000000        0x0 libzephyr.a(notify.c.obj)
 .bss           0x0000000000000000        0x0 libzephyr.a(notify.c.obj)
 .text.sys_notify_validate
                0x0000000000000000       0x22 libzephyr.a(notify.c.obj)
 .text.sys_notify_finalize
                0x0000000000000000       0x1a libzephyr.a(notify.c.obj)
 .debug_info    0x0000000000000000      0xb76 libzephyr.a(notify.c.obj)
 .debug_abbrev  0x0000000000000000      0x286 libzephyr.a(notify.c.obj)
 .debug_loc     0x0000000000000000      0x135 libzephyr.a(notify.c.obj)
 .debug_aranges
                0x0000000000000000       0x28 libzephyr.a(notify.c.obj)
 .debug_ranges  0x0000000000000000       0x30 libzephyr.a(notify.c.obj)
 .debug_line    0x0000000000000000      0x579 libzephyr.a(notify.c.obj)
 .debug_str     0x0000000000000000      0x806 libzephyr.a(notify.c.obj)
 .comment       0x0000000000000000       0x33 libzephyr.a(notify.c.obj)
 .debug_frame   0x0000000000000000       0x30 libzephyr.a(notify.c.obj)
 .text          0x0000000000000000        0x0 libzephyr.a(printk.c.obj)
 .data          0x0000000000000000        0x0 libzephyr.a(printk.c.obj)
 .bss           0x0000000000000000        0x0 libzephyr.a(printk.c.obj)
 .text.__printk_get_hook
                0x0000000000000000        0xc libzephyr.a(printk.c.obj)
 .text          0x0000000000000000        0x0 libzephyr.a(onoff.c.obj)
 .data          0x0000000000000000        0x0 libzephyr.a(onoff.c.obj)
 .bss           0x0000000000000000        0x0 libzephyr.a(onoff.c.obj)
 .text.process_recheck
                0x0000000000000000       0x38 libzephyr.a(onoff.c.obj)
 .text.validate_args
                0x0000000000000000       0x1e libzephyr.a(onoff.c.obj)
 .text.process_event
                0x0000000000000000      0x1dc libzephyr.a(onoff.c.obj)
 .text.transition_complete
                0x0000000000000000       0x1c libzephyr.a(onoff.c.obj)
 .text.onoff_manager_init
                0x0000000000000000       0x26 libzephyr.a(onoff.c.obj)
 .text.onoff_request
                0x0000000000000000       0xa0 libzephyr.a(onoff.c.obj)
 .text.onoff_release
                0x0000000000000000       0x4a libzephyr.a(onoff.c.obj)
 .text.onoff_reset
                0x0000000000000000       0x64 libzephyr.a(onoff.c.obj)
 .text.onoff_cancel
                0x0000000000000000       0x60 libzephyr.a(onoff.c.obj)
 .text.onoff_monitor_register
                0x0000000000000000       0x3c libzephyr.a(onoff.c.obj)
 .text.onoff_monitor_unregister
                0x0000000000000000       0x5a libzephyr.a(onoff.c.obj)
 .debug_info    0x0000000000000000     0x2929 libzephyr.a(onoff.c.obj)
 .debug_abbrev  0x0000000000000000      0x558 libzephyr.a(onoff.c.obj)
 .debug_loc     0x0000000000000000     0x1d2f libzephyr.a(onoff.c.obj)
 .debug_aranges
                0x0000000000000000       0x70 libzephyr.a(onoff.c.obj)
 .debug_ranges  0x0000000000000000      0x688 libzephyr.a(onoff.c.obj)
 .debug_line    0x0000000000000000     0x138e libzephyr.a(onoff.c.obj)
 .debug_str     0x0000000000000000      0xbf4 libzephyr.a(onoff.c.obj)
 .comment       0x0000000000000000       0x33 libzephyr.a(onoff.c.obj)
 .debug_frame   0x0000000000000000      0x130 libzephyr.a(onoff.c.obj)
 .text          0x0000000000000000        0x0 libzephyr.a(rb.c.obj)
 .data          0x0000000000000000        0x0 libzephyr.a(rb.c.obj)
 .bss           0x0000000000000000        0x0 libzephyr.a(rb.c.obj)
 .text.set_child
                0x0000000000000000       0x12 libzephyr.a(rb.c.obj)
 .text.find_and_stack
                0x0000000000000000       0x3a libzephyr.a(rb.c.obj)
 .text.rotate   0x0000000000000000       0x8c libzephyr.a(rb.c.obj)
 .text.fix_missing_black
                0x0000000000000000      0x172 libzephyr.a(rb.c.obj)
 .text.stack_left_limb
                0x0000000000000000       0x36 libzephyr.a(rb.c.obj)
 .text.z_rb_get_minmax
                0x0000000000000000       0x18 libzephyr.a(rb.c.obj)
 .text.rb_insert
                0x0000000000000000      0x132 libzephyr.a(rb.c.obj)
 .text.rb_remove
                0x0000000000000000      0x1ae libzephyr.a(rb.c.obj)
 .text.z_rb_walk
                0x0000000000000000       0x24 libzephyr.a(rb.c.obj)
 .text.z_rb_child
                0x0000000000000000        0xe libzephyr.a(rb.c.obj)
 .text.z_rb_is_black
                0x0000000000000000        0x8 libzephyr.a(rb.c.obj)
 .text.rb_contains
                0x0000000000000000       0x2c libzephyr.a(rb.c.obj)
 .text.z_rb_foreach_next
                0x0000000000000000       0x58 libzephyr.a(rb.c.obj)
 .debug_info    0x0000000000000000     0x29b7 libzephyr.a(rb.c.obj)
 .debug_abbrev  0x0000000000000000      0x54d libzephyr.a(rb.c.obj)
 .debug_loc     0x0000000000000000     0x22b5 libzephyr.a(rb.c.obj)
 .debug_aranges
                0x0000000000000000       0x80 libzephyr.a(rb.c.obj)
 .debug_ranges  0x0000000000000000      0x5f0 libzephyr.a(rb.c.obj)
 .debug_line    0x0000000000000000     0x153f libzephyr.a(rb.c.obj)
 .debug_str     0x0000000000000000      0x93c libzephyr.a(rb.c.obj)
 .comment       0x0000000000000000       0x33 libzephyr.a(rb.c.obj)
 .debug_frame   0x0000000000000000      0x1bc libzephyr.a(rb.c.obj)
 .text          0x0000000000000000        0x0 libzephyr.a(sem.c.obj)
 .data          0x0000000000000000        0x0 libzephyr.a(sem.c.obj)
 .bss           0x0000000000000000        0x0 libzephyr.a(sem.c.obj)
 .text.sys_sem_init
                0x0000000000000000       0x2e libzephyr.a(sem.c.obj)
 .text.sys_sem_give
                0x0000000000000000       0x78 libzephyr.a(sem.c.obj)
 .text.sys_sem_take
                0x0000000000000000       0x76 libzephyr.a(sem.c.obj)
 .text.sys_sem_count_get
                0x0000000000000000       0x10 libzephyr.a(sem.c.obj)
 .debug_info    0x0000000000000000     0x132e libzephyr.a(sem.c.obj)
 .debug_abbrev  0x0000000000000000      0x3cf libzephyr.a(sem.c.obj)
 .debug_loc     0x0000000000000000      0x558 libzephyr.a(sem.c.obj)
 .debug_aranges
                0x0000000000000000       0x38 libzephyr.a(sem.c.obj)
 .debug_ranges  0x0000000000000000       0xb8 libzephyr.a(sem.c.obj)
 .debug_line    0x0000000000000000      0x886 libzephyr.a(sem.c.obj)
 .debug_str     0x0000000000000000      0x9c9 libzephyr.a(sem.c.obj)
 .comment       0x0000000000000000       0x33 libzephyr.a(sem.c.obj)
 .debug_frame   0x0000000000000000       0x74 libzephyr.a(sem.c.obj)
 .text          0x0000000000000000        0x0 libzephyr.a(thread_entry.c.obj)
 .data          0x0000000000000000        0x0 libzephyr.a(thread_entry.c.obj)
 .bss           0x0000000000000000        0x0 libzephyr.a(thread_entry.c.obj)
 .text          0x0000000000000000        0x0 libzephyr.a(timeutil.c.obj)
 .data          0x0000000000000000        0x0 libzephyr.a(timeutil.c.obj)
 .bss           0x0000000000000000        0x0 libzephyr.a(timeutil.c.obj)
 .text.timeutil_timegm64
                0x0000000000000000      0x108 libzephyr.a(timeutil.c.obj)
 .text.timeutil_timegm
                0x0000000000000000       0x30 libzephyr.a(timeutil.c.obj)
 .debug_info    0x0000000000000000      0x56d libzephyr.a(timeutil.c.obj)
 .debug_abbrev  0x0000000000000000      0x270 libzephyr.a(timeutil.c.obj)
 .debug_loc     0x0000000000000000      0x355 libzephyr.a(timeutil.c.obj)
 .debug_aranges
                0x0000000000000000       0x28 libzephyr.a(timeutil.c.obj)
 .debug_ranges  0x0000000000000000       0x80 libzephyr.a(timeutil.c.obj)
 .debug_line    0x0000000000000000      0x5e7 libzephyr.a(timeutil.c.obj)
 .debug_str     0x0000000000000000      0x414 libzephyr.a(timeutil.c.obj)
 .comment       0x0000000000000000       0x33 libzephyr.a(timeutil.c.obj)
 .debug_frame   0x0000000000000000       0x5c libzephyr.a(timeutil.c.obj)
 .text          0x0000000000000000        0x0 libzephyr.a(work_q.c.obj)
 .data          0x0000000000000000        0x0 libzephyr.a(work_q.c.obj)
 .bss           0x0000000000000000        0x0 libzephyr.a(work_q.c.obj)
 .text.arch_is_user_context
                0x0000000000000000       0x14 libzephyr.a(work_q.c.obj)
 .text.z_work_q_main
                0x0000000000000000       0x64 libzephyr.a(work_q.c.obj)
 .rodata.k_work_q_user_start.str1.1
                0x0000000000000000        0xa libzephyr.a(work_q.c.obj)
 .text.k_work_q_user_start
                0x0000000000000000       0xcc libzephyr.a(work_q.c.obj)
 .debug_info    0x0000000000000000     0x1721 libzephyr.a(work_q.c.obj)
 .debug_abbrev  0x0000000000000000      0x471 libzephyr.a(work_q.c.obj)
 .debug_loc     0x0000000000000000      0x761 libzephyr.a(work_q.c.obj)
 .debug_aranges
                0x0000000000000000       0x30 libzephyr.a(work_q.c.obj)
 .debug_ranges  0x0000000000000000      0x118 libzephyr.a(work_q.c.obj)
 .debug_line    0x0000000000000000      0x8ce libzephyr.a(work_q.c.obj)
 .debug_str     0x0000000000000000      0xa5f libzephyr.a(work_q.c.obj)
 .comment       0x0000000000000000       0x33 libzephyr.a(work_q.c.obj)
 .debug_frame   0x0000000000000000       0x68 libzephyr.a(work_q.c.obj)
 .text          0x0000000000000000        0x0 libzephyr.a(heap.c.obj)
 .data          0x0000000000000000        0x0 libzephyr.a(heap.c.obj)
 .bss           0x0000000000000000        0x0 libzephyr.a(heap.c.obj)
 .text          0x0000000000000000        0x0 libzephyr.a(heap-validate.c.obj)
 .data          0x0000000000000000        0x0 libzephyr.a(heap-validate.c.obj)
 .bss           0x0000000000000000        0x0 libzephyr.a(heap-validate.c.obj)
 .text.chunk_field
                0x0000000000000000       0x18 libzephyr.a(heap-validate.c.obj)
 .text.used     0x0000000000000000       0x18 libzephyr.a(heap-validate.c.obj)
 .text.rand32   0x0000000000000000       0x3c libzephyr.a(heap-validate.c.obj)
 .text.max_chunkid
                0x0000000000000000       0x10 libzephyr.a(heap-validate.c.obj)
 .text.in_bounds
                0x0000000000000000       0x2e libzephyr.a(heap-validate.c.obj)
 .text.valid_chunk
                0x0000000000000000       0x7c libzephyr.a(heap-validate.c.obj)
 .text.chunk_set_used
                0x0000000000000000       0x2c libzephyr.a(heap-validate.c.obj)
 .text.sys_heap_validate
                0x0000000000000000      0x1ae libzephyr.a(heap-validate.c.obj)
 .text.sys_heap_stress
                0x0000000000000000      0x108 libzephyr.a(heap-validate.c.obj)
 .data.state.9126
                0x0000000000000000        0x8 libzephyr.a(heap-validate.c.obj)
 .debug_info    0x0000000000000000     0x1a84 libzephyr.a(heap-validate.c.obj)
 .debug_abbrev  0x0000000000000000      0x432 libzephyr.a(heap-validate.c.obj)
 .debug_loc     0x0000000000000000      0xb9b libzephyr.a(heap-validate.c.obj)
 .debug_aranges
                0x0000000000000000       0x60 libzephyr.a(heap-validate.c.obj)
 .debug_ranges  0x0000000000000000      0x288 libzephyr.a(heap-validate.c.obj)
 .debug_line    0x0000000000000000      0xd0d libzephyr.a(heap-validate.c.obj)
 .debug_str     0x0000000000000000      0xa8c libzephyr.a(heap-validate.c.obj)
 .comment       0x0000000000000000       0x33 libzephyr.a(heap-validate.c.obj)
 .debug_frame   0x0000000000000000      0x108 libzephyr.a(heap-validate.c.obj)
 .text          0x0000000000000000        0x0 libzephyr.a(mutex.c.obj)
 .data          0x0000000000000000        0x0 libzephyr.a(mutex.c.obj)
 .bss           0x0000000000000000        0x0 libzephyr.a(mutex.c.obj)
 .text          0x0000000000000000        0x0 libzephyr.a(configs.c.obj)
 .data          0x0000000000000000        0x0 libzephyr.a(configs.c.obj)
 .bss           0x0000000000000000        0x0 libzephyr.a(configs.c.obj)
 .text          0x0000000000000000        0x0 libzephyr.a(validate_base_addresses.c.obj)
 .data          0x0000000000000000        0x0 libzephyr.a(validate_base_addresses.c.obj)
 .bss           0x0000000000000000        0x0 libzephyr.a(validate_base_addresses.c.obj)
 .debug_info    0x0000000000000000      0x956 libzephyr.a(validate_base_addresses.c.obj)
 .debug_abbrev  0x0000000000000000      0x185 libzephyr.a(validate_base_addresses.c.obj)
 .debug_aranges
                0x0000000000000000       0x18 libzephyr.a(validate_base_addresses.c.obj)
 .debug_line    0x0000000000000000      0x43c libzephyr.a(validate_base_addresses.c.obj)
 .debug_str     0x0000000000000000      0x770 libzephyr.a(validate_base_addresses.c.obj)
 .comment       0x0000000000000000       0x33 libzephyr.a(validate_base_addresses.c.obj)
 .text          0x0000000000000000        0x0 libzephyr.a(validate_enabled_instances.c.obj)
 .data          0x0000000000000000        0x0 libzephyr.a(validate_enabled_instances.c.obj)
 .bss           0x0000000000000000        0x0 libzephyr.a(validate_enabled_instances.c.obj)
 .debug_info    0x0000000000000000      0x956 libzephyr.a(validate_enabled_instances.c.obj)
 .debug_abbrev  0x0000000000000000      0x185 libzephyr.a(validate_enabled_instances.c.obj)
 .debug_aranges
                0x0000000000000000       0x18 libzephyr.a(validate_enabled_instances.c.obj)
 .debug_line    0x0000000000000000      0x43c libzephyr.a(validate_enabled_instances.c.obj)
 .debug_str     0x0000000000000000      0x773 libzephyr.a(validate_enabled_instances.c.obj)
 .comment       0x0000000000000000       0x33 libzephyr.a(validate_enabled_instances.c.obj)
 .text          0x0000000000000000        0x0 libzephyr.a(log_list.c.obj)
 .data          0x0000000000000000        0x0 libzephyr.a(log_list.c.obj)
 .bss           0x0000000000000000        0x0 libzephyr.a(log_list.c.obj)
 .text          0x0000000000000000        0x0 libzephyr.a(log_core.c.obj)
 .data          0x0000000000000000        0x0 libzephyr.a(log_core.c.obj)
 .bss           0x0000000000000000        0x0 libzephyr.a(log_core.c.obj)
 .text.log_printk
                0x0000000000000000        0x2 libzephyr.a(log_core.c.obj)
 .text.log_hexdump_sync
                0x0000000000000000       0x60 libzephyr.a(log_core.c.obj)
 .text.log_thread_set
                0x0000000000000000        0x2 libzephyr.a(log_core.c.obj)
 .text.log_set_timestamp_func
                0x0000000000000000       0x20 libzephyr.a(log_core.c.obj)
 .text.z_impl_log_buffered_cnt
                0x0000000000000000        0xc libzephyr.a(log_core.c.obj)
 .text.z_vrfy_log_buffered_cnt
                0x0000000000000000        0xc libzephyr.a(log_core.c.obj)
 .text.log_src_cnt_get
                0x0000000000000000       0x14 libzephyr.a(log_core.c.obj)
 .text.z_impl_log_filter_set
                0x0000000000000000        0x4 libzephyr.a(log_core.c.obj)
 .text.log_backend_disable
                0x0000000000000000        0x8 libzephyr.a(log_core.c.obj)
 .text.log_filter_get
                0x0000000000000000       0x10 libzephyr.a(log_core.c.obj)
 .text.log_get_strdup_pool_utilization
                0x0000000000000000        0x4 libzephyr.a(log_core.c.obj)
 .text.log_get_strdup_longest_string
                0x0000000000000000        0x4 libzephyr.a(log_core.c.obj)
 .text.z_impl_z_log_string_from_user
                0x0000000000000000        0x2 libzephyr.a(log_core.c.obj)
 .text.z_vrfy_log_process
                0x0000000000000000        0x4 libzephyr.a(log_core.c.obj)
 .text.z_vrfy_log_panic
                0x0000000000000000        0x4 libzephyr.a(log_core.c.obj)
 .text.log_generic
                0x0000000000000000       0x5a libzephyr.a(log_core.c.obj)
 .text.log_string_sync
                0x0000000000000000       0x1a libzephyr.a(log_core.c.obj)
 .text.z_impl_z_log_hexdump_from_user
                0x0000000000000000        0x2 libzephyr.a(log_core.c.obj)
 .text          0x0000000000000000        0x0 libzephyr.a(log_msg.c.obj)
 .data          0x0000000000000000        0x0 libzephyr.a(log_msg.c.obj)
 .bss           0x0000000000000000        0x0 libzephyr.a(log_msg.c.obj)
 .text.log_msg_hexdump_data_put
                0x0000000000000000        0xe libzephyr.a(log_msg.c.obj)
 .text          0x0000000000000000        0x0 libzephyr.a(log_output.c.obj)
 .data          0x0000000000000000        0x0 libzephyr.a(log_output.c.obj)
 .bss           0x0000000000000000        0x0 libzephyr.a(log_output.c.obj)
 .text.log_output_string
                0x0000000000000000       0x70 libzephyr.a(log_output.c.obj)
 .text.log_output_hexdump
                0x0000000000000000       0x74 libzephyr.a(log_output.c.obj)
 .text          0x0000000000000000        0x0 libzephyr.a(log_backend_uart.c.obj)
 .data          0x0000000000000000        0x0 libzephyr.a(log_backend_uart.c.obj)
 .bss           0x0000000000000000        0x0 libzephyr.a(log_backend_uart.c.obj)
 .text          0x0000000000000000        0x0 libzephyr.a(log_backend_rtt.c.obj)
 .data          0x0000000000000000        0x0 libzephyr.a(log_backend_rtt.c.obj)
 .bss           0x0000000000000000        0x0 libzephyr.a(log_backend_rtt.c.obj)
 .text          0x0000000000000000        0x0 libzephyr.a(power.c.obj)
 .data          0x0000000000000000        0x0 libzephyr.a(power.c.obj)
 .bss           0x0000000000000000        0x0 libzephyr.a(power.c.obj)
 .text.sys_pm_dump_debug_info
                0x0000000000000000        0x2 libzephyr.a(power.c.obj)
 .text.sys_pm_notify_power_state_entry
                0x0000000000000000        0x2 libzephyr.a(power.c.obj)
 .text.sys_pm_notify_power_state_exit
                0x0000000000000000        0x2 libzephyr.a(power.c.obj)
 .text.sys_pm_force_power_state
                0x0000000000000000        0xc libzephyr.a(power.c.obj)
 .text._sys_suspend
                0x0000000000000000       0x6c libzephyr.a(power.c.obj)
 .text._sys_resume
                0x0000000000000000       0x2c libzephyr.a(power.c.obj)
 .bss.pm_state  0x0000000000000000        0x1 libzephyr.a(power.c.obj)
 .data.forced_pm_state
                0x0000000000000000        0x1 libzephyr.a(power.c.obj)
 .data.post_ops_done
                0x0000000000000000        0x4 libzephyr.a(power.c.obj)
 .text          0x0000000000000000        0x0 libzephyr.a(policy_residency.c.obj)
 .data          0x0000000000000000        0x0 libzephyr.a(policy_residency.c.obj)
 .bss           0x0000000000000000        0x0 libzephyr.a(policy_residency.c.obj)
 .text.sys_pm_policy_next_state
                0x0000000000000000       0x10 libzephyr.a(policy_residency.c.obj)
 .text.sys_pm_policy_low_power_devices
                0x0000000000000000        0x4 libzephyr.a(policy_residency.c.obj)
 .debug_info    0x0000000000000000      0xcbc libzephyr.a(policy_residency.c.obj)
 .debug_abbrev  0x0000000000000000      0x2e2 libzephyr.a(policy_residency.c.obj)
 .debug_loc     0x0000000000000000       0x5f libzephyr.a(policy_residency.c.obj)
 .debug_aranges
                0x0000000000000000       0x28 libzephyr.a(policy_residency.c.obj)
 .debug_ranges  0x0000000000000000       0x30 libzephyr.a(policy_residency.c.obj)
 .debug_line    0x0000000000000000      0x619 libzephyr.a(policy_residency.c.obj)
 .debug_str     0x0000000000000000      0x9c2 libzephyr.a(policy_residency.c.obj)
 .comment       0x0000000000000000       0x33 libzephyr.a(policy_residency.c.obj)
 .debug_frame   0x0000000000000000       0x30 libzephyr.a(policy_residency.c.obj)
 .text          0x0000000000000000        0x0 libzephyr.a(uart_console.c.obj)
 .data          0x0000000000000000        0x0 libzephyr.a(uart_console.c.obj)
 .bss           0x0000000000000000        0x0 libzephyr.a(uart_console.c.obj)
 .text          0x0000000000000000        0x0 libzephyr.a(nrf_power_clock.c.obj)
 .data          0x0000000000000000        0x0 libzephyr.a(nrf_power_clock.c.obj)
 .bss           0x0000000000000000        0x0 libzephyr.a(nrf_power_clock.c.obj)
 .text          0x0000000000000000        0x0 libzephyr.a(sys_clock_init.c.obj)
 .data          0x0000000000000000        0x0 libzephyr.a(sys_clock_init.c.obj)
 .bss           0x0000000000000000        0x0 libzephyr.a(sys_clock_init.c.obj)
 .text.z_clock_driver_init
                0x0000000000000000        0x4 libzephyr.a(sys_clock_init.c.obj)
 .text.z_clock_device_ctrl
                0x0000000000000000        0x6 libzephyr.a(sys_clock_init.c.obj)
 .text.z_clock_set_timeout
                0x0000000000000000        0x2 libzephyr.a(sys_clock_init.c.obj)
 .text.sys_clock_disable
                0x0000000000000000        0x2 libzephyr.a(sys_clock_init.c.obj)
 .text          0x0000000000000000        0x0 libzephyr.a(nrf_rtc_timer.c.obj)
 .data          0x0000000000000000        0x0 libzephyr.a(nrf_rtc_timer.c.obj)
 .bss           0x0000000000000000        0x0 libzephyr.a(nrf_rtc_timer.c.obj)
 .text          0x0000000000000000        0x0 libzephyr.a(SEGGER_RTT.c.obj)
 .data          0x0000000000000000        0x0 libzephyr.a(SEGGER_RTT.c.obj)
 .bss           0x0000000000000000        0x0 libzephyr.a(SEGGER_RTT.c.obj)
 .text._GetAvailWriteSpace
                0x0000000000000000       0x1c libzephyr.a(SEGGER_RTT.c.obj)
 .text._WriteNoCheck
                0x0000000000000000       0x38 libzephyr.a(SEGGER_RTT.c.obj)
 .text._WriteBlocking
                0x0000000000000000       0x52 libzephyr.a(SEGGER_RTT.c.obj)
 .text._PostTerminalSwitch.constprop.0
                0x0000000000000000       0x28 libzephyr.a(SEGGER_RTT.c.obj)
 .text.k_mutex_lock.constprop.0
                0x0000000000000000       0x34 libzephyr.a(SEGGER_RTT.c.obj)
 .text.k_mutex_unlock.constprop.0
                0x0000000000000000       0x2c libzephyr.a(SEGGER_RTT.c.obj)
 .text.SEGGER_RTT_ReadNoLock
                0x0000000000000000       0x90 libzephyr.a(SEGGER_RTT.c.obj)
 .text.SEGGER_RTT_Read
                0x0000000000000000       0x28 libzephyr.a(SEGGER_RTT.c.obj)
 .text.SEGGER_RTT_WriteWithOverwriteNoLock
                0x0000000000000000       0xb8 libzephyr.a(SEGGER_RTT.c.obj)
 .text.SEGGER_RTT_WriteNoLock
                0x0000000000000000       0x68 libzephyr.a(SEGGER_RTT.c.obj)
 .text.SEGGER_RTT_Write
                0x0000000000000000       0x38 libzephyr.a(SEGGER_RTT.c.obj)
 .text.SEGGER_RTT_WriteString
                0x0000000000000000       0x1a libzephyr.a(SEGGER_RTT.c.obj)
 .text.SEGGER_RTT_PutCharSkipNoLock
                0x0000000000000000       0x34 libzephyr.a(SEGGER_RTT.c.obj)
 .text.SEGGER_RTT_PutCharSkip
                0x0000000000000000       0x54 libzephyr.a(SEGGER_RTT.c.obj)
 .text.SEGGER_RTT_PutChar
                0x0000000000000000       0x64 libzephyr.a(SEGGER_RTT.c.obj)
 .text.SEGGER_RTT_GetKey
                0x0000000000000000       0x20 libzephyr.a(SEGGER_RTT.c.obj)
 .text.SEGGER_RTT_WaitKey
                0x0000000000000000        0xc libzephyr.a(SEGGER_RTT.c.obj)
 .text.SEGGER_RTT_HasKey
                0x0000000000000000       0x1c libzephyr.a(SEGGER_RTT.c.obj)
 .text.SEGGER_RTT_HasData
                0x0000000000000000       0x14 libzephyr.a(SEGGER_RTT.c.obj)
 .text.SEGGER_RTT_AllocDownBuffer
                0x0000000000000000       0x64 libzephyr.a(SEGGER_RTT.c.obj)
 .text.SEGGER_RTT_AllocUpBuffer
                0x0000000000000000       0x6c libzephyr.a(SEGGER_RTT.c.obj)
 .text.SEGGER_RTT_ConfigUpBuffer
                0x0000000000000000       0x60 libzephyr.a(SEGGER_RTT.c.obj)
 .text.SEGGER_RTT_ConfigDownBuffer
                0x0000000000000000       0x54 libzephyr.a(SEGGER_RTT.c.obj)
 .text.SEGGER_RTT_SetNameUpBuffer
                0x0000000000000000       0x38 libzephyr.a(SEGGER_RTT.c.obj)
 .text.SEGGER_RTT_SetNameDownBuffer
                0x0000000000000000       0x38 libzephyr.a(SEGGER_RTT.c.obj)
 .text.SEGGER_RTT_SetFlagsUpBuffer
                0x0000000000000000       0x38 libzephyr.a(SEGGER_RTT.c.obj)
 .text.SEGGER_RTT_SetFlagsDownBuffer
                0x0000000000000000       0x38 libzephyr.a(SEGGER_RTT.c.obj)
 .text.SEGGER_RTT_SetTerminal
                0x0000000000000000       0x84 libzephyr.a(SEGGER_RTT.c.obj)
 .text.SEGGER_RTT_TerminalOut
                0x0000000000000000       0x9c libzephyr.a(SEGGER_RTT.c.obj)
 .bss._ActiveTerminal
                0x0000000000000000        0x1 libzephyr.a(SEGGER_RTT.c.obj)
 .rodata._aTerminalId
                0x0000000000000000       0x10 libzephyr.a(SEGGER_RTT.c.obj)
 .text          0x0000000000000000        0x0 libzephyr.a(SEGGER_RTT_zephyr.c.obj)
 .data          0x0000000000000000        0x0 libzephyr.a(SEGGER_RTT_zephyr.c.obj)
 .bss           0x0000000000000000        0x0 libzephyr.a(SEGGER_RTT_zephyr.c.obj)
 .text          0x0000000000000000        0x0 arch/common/libarch__common.a(isr_tables.c.obj)
 .data          0x0000000000000000        0x0 arch/common/libarch__common.a(isr_tables.c.obj)
 .bss           0x0000000000000000        0x0 arch/common/libarch__common.a(isr_tables.c.obj)
 .text          0x0000000000000000        0x0 arch/common/libarch__common.a(sw_isr_common.c.obj)
 .data          0x0000000000000000        0x0 arch/common/libarch__common.a(sw_isr_common.c.obj)
 .bss           0x0000000000000000        0x0 arch/common/libarch__common.a(sw_isr_common.c.obj)
 .debug_info    0x0000000000000000      0x1aa arch/common/libarch__common.a(sw_isr_common.c.obj)
 .debug_abbrev  0x0000000000000000       0xca arch/common/libarch__common.a(sw_isr_common.c.obj)
 .debug_aranges
                0x0000000000000000       0x18 arch/common/libarch__common.a(sw_isr_common.c.obj)
 .debug_line    0x0000000000000000      0x297 arch/common/libarch__common.a(sw_isr_common.c.obj)
 .debug_str     0x0000000000000000      0x316 arch/common/libarch__common.a(sw_isr_common.c.obj)
 .comment       0x0000000000000000       0x33 arch/common/libarch__common.a(sw_isr_common.c.obj)
 .text          0x0000000000000000        0x0 arch/arch/arm/core/aarch32/libarch__arm__core__aarch32.a(swap.c.obj)
 .data          0x0000000000000000        0x0 arch/arch/arm/core/aarch32/libarch__arm__core__aarch32.a(swap.c.obj)
 .bss           0x0000000000000000        0x0 arch/arch/arm/core/aarch32/libarch__arm__core__aarch32.a(swap.c.obj)
 .text          0x0000000000000000        0x0 arch/arch/arm/core/aarch32/libarch__arm__core__aarch32.a(swap_helper.S.obj)
 .data          0x0000000000000000        0x0 arch/arch/arm/core/aarch32/libarch__arm__core__aarch32.a(swap_helper.S.obj)
 .bss           0x0000000000000000        0x0 arch/arch/arm/core/aarch32/libarch__arm__core__aarch32.a(swap_helper.S.obj)
 .text          0x0000000000000000        0x0 arch/arch/arm/core/aarch32/libarch__arm__core__aarch32.a(irq_manage.c.obj)
 .data          0x0000000000000000        0x0 arch/arch/arm/core/aarch32/libarch__arm__core__aarch32.a(irq_manage.c.obj)
 .bss           0x0000000000000000        0x0 arch/arch/arm/core/aarch32/libarch__arm__core__aarch32.a(irq_manage.c.obj)
 .text.arch_irq_disable
                0x0000000000000000       0x28 arch/arch/arm/core/aarch32/libarch__arm__core__aarch32.a(irq_manage.c.obj)
 .text.arch_irq_is_enabled
                0x0000000000000000       0x1c arch/arch/arm/core/aarch32/libarch__arm__core__aarch32.a(irq_manage.c.obj)
 .text._arch_isr_direct_pm
                0x0000000000000000       0x1c arch/arch/arm/core/aarch32/libarch__arm__core__aarch32.a(irq_manage.c.obj)
 .text          0x0000000000000000        0x0 arch/arch/arm/core/aarch32/libarch__arm__core__aarch32.a(thread.c.obj)
 .data          0x0000000000000000        0x0 arch/arch/arm/core/aarch32/libarch__arm__core__aarch32.a(thread.c.obj)
 .bss           0x0000000000000000        0x0 arch/arch/arm/core/aarch32/libarch__arm__core__aarch32.a(thread.c.obj)
 .text          0x0000000000000000        0x0 arch/arch/arm/core/aarch32/libarch__arm__core__aarch32.a(cpu_idle.S.obj)
 .data          0x0000000000000000        0x0 arch/arch/arm/core/aarch32/libarch__arm__core__aarch32.a(cpu_idle.S.obj)
 .bss           0x0000000000000000        0x0 arch/arch/arm/core/aarch32/libarch__arm__core__aarch32.a(cpu_idle.S.obj)
 .text.arch_cpu_atomic_idle
                0x0000000000000000       0x14 arch/arch/arm/core/aarch32/libarch__arm__core__aarch32.a(cpu_idle.S.obj)
 .text          0x0000000000000000        0x0 arch/arch/arm/core/aarch32/libarch__arm__core__aarch32.a(fatal.c.obj)
 .data          0x0000000000000000        0x0 arch/arch/arm/core/aarch32/libarch__arm__core__aarch32.a(fatal.c.obj)
 .bss           0x0000000000000000        0x0 arch/arch/arm/core/aarch32/libarch__arm__core__aarch32.a(fatal.c.obj)
 .text          0x0000000000000000        0x0 arch/arch/arm/core/aarch32/libarch__arm__core__aarch32.a(nmi.c.obj)
 .data          0x0000000000000000        0x0 arch/arch/arm/core/aarch32/libarch__arm__core__aarch32.a(nmi.c.obj)
 .bss           0x0000000000000000        0x0 arch/arch/arm/core/aarch32/libarch__arm__core__aarch32.a(nmi.c.obj)
 .text          0x0000000000000000        0x0 arch/arch/arm/core/aarch32/libarch__arm__core__aarch32.a(nmi_on_reset.S.obj)
 .data          0x0000000000000000        0x0 arch/arch/arm/core/aarch32/libarch__arm__core__aarch32.a(nmi_on_reset.S.obj)
 .bss           0x0000000000000000        0x0 arch/arch/arm/core/aarch32/libarch__arm__core__aarch32.a(nmi_on_reset.S.obj)
 .text          0x0000000000000000        0x0 arch/arch/arm/core/aarch32/libarch__arm__core__aarch32.a(prep_c.c.obj)
 .data          0x0000000000000000        0x0 arch/arch/arm/core/aarch32/libarch__arm__core__aarch32.a(prep_c.c.obj)
 .bss           0x0000000000000000        0x0 arch/arch/arm/core/aarch32/libarch__arm__core__aarch32.a(prep_c.c.obj)
 .text          0x0000000000000000        0x0 arch/arch/arm/core/aarch32/libarch__arm__core__aarch32.a(isr_wrapper.S.obj)
 .data          0x0000000000000000        0x0 arch/arch/arm/core/aarch32/libarch__arm__core__aarch32.a(isr_wrapper.S.obj)
 .bss           0x0000000000000000        0x0 arch/arch/arm/core/aarch32/libarch__arm__core__aarch32.a(isr_wrapper.S.obj)
 .text          0x0000000000000000        0x0 arch/arch/arm/core/aarch32/libarch__arm__core__aarch32.a(userspace.S.obj)
 .data          0x0000000000000000        0x0 arch/arch/arm/core/aarch32/libarch__arm__core__aarch32.a(userspace.S.obj)
 .bss           0x0000000000000000        0x0 arch/arch/arm/core/aarch32/libarch__arm__core__aarch32.a(userspace.S.obj)
 .text          0x0000000000000000        0x0 arch/arch/arm/core/aarch32/cortex_m/libarch__arm__core__aarch32__cortex_m.a(vector_table.S.obj)
 .data          0x0000000000000000        0x0 arch/arch/arm/core/aarch32/cortex_m/libarch__arm__core__aarch32__cortex_m.a(vector_table.S.obj)
 .bss           0x0000000000000000        0x0 arch/arch/arm/core/aarch32/cortex_m/libarch__arm__core__aarch32__cortex_m.a(vector_table.S.obj)
 .text          0x0000000000000000        0x0 arch/arch/arm/core/aarch32/cortex_m/libarch__arm__core__aarch32__cortex_m.a(reset.S.obj)
 .data          0x0000000000000000        0x0 arch/arch/arm/core/aarch32/cortex_m/libarch__arm__core__aarch32__cortex_m.a(reset.S.obj)
 .bss           0x0000000000000000        0x0 arch/arch/arm/core/aarch32/cortex_m/libarch__arm__core__aarch32__cortex_m.a(reset.S.obj)
 .text          0x0000000000000000        0x0 arch/arch/arm/core/aarch32/cortex_m/libarch__arm__core__aarch32__cortex_m.a(fault_s.S.obj)
 .data          0x0000000000000000        0x0 arch/arch/arm/core/aarch32/cortex_m/libarch__arm__core__aarch32__cortex_m.a(fault_s.S.obj)
 .bss           0x0000000000000000        0x0 arch/arch/arm/core/aarch32/cortex_m/libarch__arm__core__aarch32__cortex_m.a(fault_s.S.obj)
 .text          0x0000000000000000        0x0 arch/arch/arm/core/aarch32/cortex_m/libarch__arm__core__aarch32__cortex_m.a(fault.c.obj)
 .data          0x0000000000000000        0x0 arch/arch/arm/core/aarch32/cortex_m/libarch__arm__core__aarch32__cortex_m.a(fault.c.obj)
 .bss           0x0000000000000000        0x0 arch/arch/arm/core/aarch32/cortex_m/libarch__arm__core__aarch32__cortex_m.a(fault.c.obj)
 .text          0x0000000000000000        0x0 arch/arch/arm/core/aarch32/cortex_m/libarch__arm__core__aarch32__cortex_m.a(exc_exit.S.obj)
 .data          0x0000000000000000        0x0 arch/arch/arm/core/aarch32/cortex_m/libarch__arm__core__aarch32__cortex_m.a(exc_exit.S.obj)
 .bss           0x0000000000000000        0x0 arch/arch/arm/core/aarch32/cortex_m/libarch__arm__core__aarch32__cortex_m.a(exc_exit.S.obj)
 .text          0x0000000000000000        0x0 arch/arch/arm/core/aarch32/cortex_m/libarch__arm__core__aarch32__cortex_m.a(scb.c.obj)
 .data          0x0000000000000000        0x0 arch/arch/arm/core/aarch32/cortex_m/libarch__arm__core__aarch32__cortex_m.a(scb.c.obj)
 .bss           0x0000000000000000        0x0 arch/arch/arm/core/aarch32/cortex_m/libarch__arm__core__aarch32__cortex_m.a(scb.c.obj)
 .text.sys_arch_reboot
                0x0000000000000000       0x24 arch/arch/arm/core/aarch32/cortex_m/libarch__arm__core__aarch32__cortex_m.a(scb.c.obj)
 .debug_info    0x0000000000000000      0xba9 arch/arch/arm/core/aarch32/cortex_m/libarch__arm__core__aarch32__cortex_m.a(scb.c.obj)
 .debug_abbrev  0x0000000000000000      0x220 arch/arch/arm/core/aarch32/cortex_m/libarch__arm__core__aarch32__cortex_m.a(scb.c.obj)
 .debug_aranges
                0x0000000000000000       0x20 arch/arch/arm/core/aarch32/cortex_m/libarch__arm__core__aarch32__cortex_m.a(scb.c.obj)
 .debug_ranges  0x0000000000000000       0x10 arch/arch/arm/core/aarch32/cortex_m/libarch__arm__core__aarch32__cortex_m.a(scb.c.obj)
 .debug_line    0x0000000000000000      0x515 arch/arch/arm/core/aarch32/cortex_m/libarch__arm__core__aarch32__cortex_m.a(scb.c.obj)
 .debug_str     0x0000000000000000      0x820 arch/arch/arm/core/aarch32/cortex_m/libarch__arm__core__aarch32__cortex_m.a(scb.c.obj)
 .comment       0x0000000000000000       0x33 arch/arch/arm/core/aarch32/cortex_m/libarch__arm__core__aarch32__cortex_m.a(scb.c.obj)
 .debug_frame   0x0000000000000000       0x20 arch/arch/arm/core/aarch32/cortex_m/libarch__arm__core__aarch32__cortex_m.a(scb.c.obj)
 .text          0x0000000000000000        0x0 arch/arch/arm/core/aarch32/cortex_m/libarch__arm__core__aarch32__cortex_m.a(irq_init.c.obj)
 .data          0x0000000000000000        0x0 arch/arch/arm/core/aarch32/cortex_m/libarch__arm__core__aarch32__cortex_m.a(irq_init.c.obj)
 .bss           0x0000000000000000        0x0 arch/arch/arm/core/aarch32/cortex_m/libarch__arm__core__aarch32__cortex_m.a(irq_init.c.obj)
 .text          0x0000000000000000        0x0 arch/arch/arm/core/aarch32/cortex_m/libarch__arm__core__aarch32__cortex_m.a(thread_abort.c.obj)
 .data          0x0000000000000000        0x0 arch/arch/arm/core/aarch32/cortex_m/libarch__arm__core__aarch32__cortex_m.a(thread_abort.c.obj)
 .bss           0x0000000000000000        0x0 arch/arch/arm/core/aarch32/cortex_m/libarch__arm__core__aarch32__cortex_m.a(thread_abort.c.obj)
 .text          0x0000000000000000        0x0 arch/arch/arm/core/aarch32/cortex_m/mpu/libarch__arm__core__aarch32__cortex_m__mpu.a(arm_core_mpu.c.obj)
 .data          0x0000000000000000        0x0 arch/arch/arm/core/aarch32/cortex_m/mpu/libarch__arm__core__aarch32__cortex_m__mpu.a(arm_core_mpu.c.obj)
 .bss           0x0000000000000000        0x0 arch/arch/arm/core/aarch32/cortex_m/mpu/libarch__arm__core__aarch32__cortex_m__mpu.a(arm_core_mpu.c.obj)
 .text.arch_mem_domain_destroy
                0x0000000000000000       0x44 arch/arch/arm/core/aarch32/cortex_m/mpu/libarch__arm__core__aarch32__cortex_m__mpu.a(arm_core_mpu.c.obj)
 .text.arch_mem_domain_partition_remove
                0x0000000000000000       0x2c arch/arch/arm/core/aarch32/cortex_m/mpu/libarch__arm__core__aarch32__cortex_m__mpu.a(arm_core_mpu.c.obj)
 .text.arch_mem_domain_partition_add
                0x0000000000000000        0x2 arch/arch/arm/core/aarch32/cortex_m/mpu/libarch__arm__core__aarch32__cortex_m__mpu.a(arm_core_mpu.c.obj)
 .text.arch_mem_domain_thread_remove
                0x0000000000000000       0x14 arch/arch/arm/core/aarch32/cortex_m/mpu/libarch__arm__core__aarch32__cortex_m__mpu.a(arm_core_mpu.c.obj)
 .text          0x0000000000000000        0x0 arch/arch/arm/core/aarch32/cortex_m/mpu/libarch__arm__core__aarch32__cortex_m__mpu.a(arm_mpu.c.obj)
 .data          0x0000000000000000        0x0 arch/arch/arm/core/aarch32/cortex_m/mpu/libarch__arm__core__aarch32__cortex_m__mpu.a(arm_mpu.c.obj)
 .bss           0x0000000000000000        0x0 arch/arch/arm/core/aarch32/cortex_m/mpu/libarch__arm__core__aarch32__cortex_m__mpu.a(arm_mpu.c.obj)
 .text.arm_core_mpu_mem_partition_config_update
                0x0000000000000000       0x60 arch/arch/arm/core/aarch32/cortex_m/mpu/libarch__arm__core__aarch32__cortex_m__mpu.a(arm_mpu.c.obj)
 .text          0x0000000000000000        0x0 lib/libc/minimal/liblib__libc__minimal.a(atoi.c.obj)
 .data          0x0000000000000000        0x0 lib/libc/minimal/liblib__libc__minimal.a(atoi.c.obj)
 .bss           0x0000000000000000        0x0 lib/libc/minimal/liblib__libc__minimal.a(atoi.c.obj)
 .text.atoi     0x0000000000000000       0x4c lib/libc/minimal/liblib__libc__minimal.a(atoi.c.obj)
 .debug_info    0x0000000000000000      0x10d lib/libc/minimal/liblib__libc__minimal.a(atoi.c.obj)
 .debug_abbrev  0x0000000000000000      0x100 lib/libc/minimal/liblib__libc__minimal.a(atoi.c.obj)
 .debug_loc     0x0000000000000000       0xab lib/libc/minimal/liblib__libc__minimal.a(atoi.c.obj)
 .debug_aranges
                0x0000000000000000       0x20 lib/libc/minimal/liblib__libc__minimal.a(atoi.c.obj)
 .debug_ranges  0x0000000000000000       0x28 lib/libc/minimal/liblib__libc__minimal.a(atoi.c.obj)
 .debug_line    0x0000000000000000      0x1ad lib/libc/minimal/liblib__libc__minimal.a(atoi.c.obj)
 .debug_str     0x0000000000000000      0x1f1 lib/libc/minimal/liblib__libc__minimal.a(atoi.c.obj)
 .comment       0x0000000000000000       0x33 lib/libc/minimal/liblib__libc__minimal.a(atoi.c.obj)
 .debug_frame   0x0000000000000000       0x2c lib/libc/minimal/liblib__libc__minimal.a(atoi.c.obj)
 .text          0x0000000000000000        0x0 lib/libc/minimal/liblib__libc__minimal.a(strtol.c.obj)
 .data          0x0000000000000000        0x0 lib/libc/minimal/liblib__libc__minimal.a(strtol.c.obj)
 .bss           0x0000000000000000        0x0 lib/libc/minimal/liblib__libc__minimal.a(strtol.c.obj)
 .text.strtol   0x0000000000000000      0x110 lib/libc/minimal/liblib__libc__minimal.a(strtol.c.obj)
 .debug_info    0x0000000000000000      0x4e6 lib/libc/minimal/liblib__libc__minimal.a(strtol.c.obj)
 .debug_abbrev  0x0000000000000000      0x20d lib/libc/minimal/liblib__libc__minimal.a(strtol.c.obj)
 .debug_loc     0x0000000000000000      0x47e lib/libc/minimal/liblib__libc__minimal.a(strtol.c.obj)
 .debug_aranges
                0x0000000000000000       0x20 lib/libc/minimal/liblib__libc__minimal.a(strtol.c.obj)
 .debug_ranges  0x0000000000000000       0x28 lib/libc/minimal/liblib__libc__minimal.a(strtol.c.obj)
 .debug_line    0x0000000000000000      0x687 lib/libc/minimal/liblib__libc__minimal.a(strtol.c.obj)
 .debug_str     0x0000000000000000      0x3d6 lib/libc/minimal/liblib__libc__minimal.a(strtol.c.obj)
 .comment       0x0000000000000000       0x33 lib/libc/minimal/liblib__libc__minimal.a(strtol.c.obj)
 .debug_frame   0x0000000000000000       0x34 lib/libc/minimal/liblib__libc__minimal.a(strtol.c.obj)
 .text          0x0000000000000000        0x0 lib/libc/minimal/liblib__libc__minimal.a(strtoul.c.obj)
 .data          0x0000000000000000        0x0 lib/libc/minimal/liblib__libc__minimal.a(strtoul.c.obj)
 .bss           0x0000000000000000        0x0 lib/libc/minimal/liblib__libc__minimal.a(strtoul.c.obj)
 .text.strtoul  0x0000000000000000      0x114 lib/libc/minimal/liblib__libc__minimal.a(strtoul.c.obj)
 .debug_info    0x0000000000000000      0x4e6 lib/libc/minimal/liblib__libc__minimal.a(strtoul.c.obj)
 .debug_abbrev  0x0000000000000000      0x20d lib/libc/minimal/liblib__libc__minimal.a(strtoul.c.obj)
 .debug_loc     0x0000000000000000      0x451 lib/libc/minimal/liblib__libc__minimal.a(strtoul.c.obj)
 .debug_aranges
                0x0000000000000000       0x20 lib/libc/minimal/liblib__libc__minimal.a(strtoul.c.obj)
 .debug_ranges  0x0000000000000000       0x28 lib/libc/minimal/liblib__libc__minimal.a(strtoul.c.obj)
 .debug_line    0x0000000000000000      0x683 lib/libc/minimal/liblib__libc__minimal.a(strtoul.c.obj)
 .debug_str     0x0000000000000000      0x3d8 lib/libc/minimal/liblib__libc__minimal.a(strtoul.c.obj)
 .comment       0x0000000000000000       0x33 lib/libc/minimal/liblib__libc__minimal.a(strtoul.c.obj)
 .debug_frame   0x0000000000000000       0x34 lib/libc/minimal/liblib__libc__minimal.a(strtoul.c.obj)
 .text          0x0000000000000000        0x0 lib/libc/minimal/liblib__libc__minimal.a(malloc.c.obj)
 .data          0x0000000000000000        0x0 lib/libc/minimal/liblib__libc__minimal.a(malloc.c.obj)
 .bss           0x0000000000000000        0x0 lib/libc/minimal/liblib__libc__minimal.a(malloc.c.obj)
 .text.z_errno  0x0000000000000000       0x24 lib/libc/minimal/liblib__libc__minimal.a(malloc.c.obj)
 .text.malloc   0x0000000000000000       0x18 lib/libc/minimal/liblib__libc__minimal.a(malloc.c.obj)
 .text.realloc  0x0000000000000000       0x40 lib/libc/minimal/liblib__libc__minimal.a(malloc.c.obj)
 .text.free     0x0000000000000000        0x4 lib/libc/minimal/liblib__libc__minimal.a(malloc.c.obj)
 .text.calloc   0x0000000000000000       0x2c lib/libc/minimal/liblib__libc__minimal.a(malloc.c.obj)
 .text.reallocarray
                0x0000000000000000       0x1e lib/libc/minimal/liblib__libc__minimal.a(malloc.c.obj)
 .debug_info    0x0000000000000000     0x117a lib/libc/minimal/liblib__libc__minimal.a(malloc.c.obj)
 .debug_abbrev  0x0000000000000000      0x3b5 lib/libc/minimal/liblib__libc__minimal.a(malloc.c.obj)
 .debug_loc     0x0000000000000000      0x471 lib/libc/minimal/liblib__libc__minimal.a(malloc.c.obj)
 .debug_aranges
                0x0000000000000000       0x48 lib/libc/minimal/liblib__libc__minimal.a(malloc.c.obj)
 .debug_ranges  0x0000000000000000       0xb8 lib/libc/minimal/liblib__libc__minimal.a(malloc.c.obj)
 .debug_line    0x0000000000000000      0x893 lib/libc/minimal/liblib__libc__minimal.a(malloc.c.obj)
 .debug_str     0x0000000000000000      0xbf0 lib/libc/minimal/liblib__libc__minimal.a(malloc.c.obj)
 .comment       0x0000000000000000       0x33 lib/libc/minimal/liblib__libc__minimal.a(malloc.c.obj)
 .debug_frame   0x0000000000000000       0xc0 lib/libc/minimal/liblib__libc__minimal.a(malloc.c.obj)
 .text          0x0000000000000000        0x0 lib/libc/minimal/liblib__libc__minimal.a(bsearch.c.obj)
 .data          0x0000000000000000        0x0 lib/libc/minimal/liblib__libc__minimal.a(bsearch.c.obj)
 .bss           0x0000000000000000        0x0 lib/libc/minimal/liblib__libc__minimal.a(bsearch.c.obj)
 .text.bsearch  0x0000000000000000       0x3c lib/libc/minimal/liblib__libc__minimal.a(bsearch.c.obj)
 .debug_info    0x0000000000000000      0x16a lib/libc/minimal/liblib__libc__minimal.a(bsearch.c.obj)
 .debug_abbrev  0x0000000000000000       0xea lib/libc/minimal/liblib__libc__minimal.a(bsearch.c.obj)
 .debug_loc     0x0000000000000000      0x133 lib/libc/minimal/liblib__libc__minimal.a(bsearch.c.obj)
 .debug_aranges
                0x0000000000000000       0x20 lib/libc/minimal/liblib__libc__minimal.a(bsearch.c.obj)
 .debug_ranges  0x0000000000000000       0x10 lib/libc/minimal/liblib__libc__minimal.a(bsearch.c.obj)
 .debug_line    0x0000000000000000      0x1b8 lib/libc/minimal/liblib__libc__minimal.a(bsearch.c.obj)
 .debug_str     0x0000000000000000      0x217 lib/libc/minimal/liblib__libc__minimal.a(bsearch.c.obj)
 .comment       0x0000000000000000       0x33 lib/libc/minimal/liblib__libc__minimal.a(bsearch.c.obj)
 .debug_frame   0x0000000000000000       0x38 lib/libc/minimal/liblib__libc__minimal.a(bsearch.c.obj)
 .text          0x0000000000000000        0x0 lib/libc/minimal/liblib__libc__minimal.a(exit.c.obj)
 .data          0x0000000000000000        0x0 lib/libc/minimal/liblib__libc__minimal.a(exit.c.obj)
 .bss           0x0000000000000000        0x0 lib/libc/minimal/liblib__libc__minimal.a(exit.c.obj)
 .rodata._exit.str1.1
                0x0000000000000000        0x6 lib/libc/minimal/liblib__libc__minimal.a(exit.c.obj)
 .text._exit    0x0000000000000000       0x10 lib/libc/minimal/liblib__libc__minimal.a(exit.c.obj)
 .debug_info    0x0000000000000000      0x9ac lib/libc/minimal/liblib__libc__minimal.a(exit.c.obj)
 .debug_abbrev  0x0000000000000000      0x1dc lib/libc/minimal/liblib__libc__minimal.a(exit.c.obj)
 .debug_loc     0x0000000000000000       0x25 lib/libc/minimal/liblib__libc__minimal.a(exit.c.obj)
 .debug_aranges
                0x0000000000000000       0x20 lib/libc/minimal/liblib__libc__minimal.a(exit.c.obj)
 .debug_ranges  0x0000000000000000       0x10 lib/libc/minimal/liblib__libc__minimal.a(exit.c.obj)
 .debug_line    0x0000000000000000      0x4ee lib/libc/minimal/liblib__libc__minimal.a(exit.c.obj)
 .debug_str     0x0000000000000000      0x78e lib/libc/minimal/liblib__libc__minimal.a(exit.c.obj)
 .comment       0x0000000000000000       0x33 lib/libc/minimal/liblib__libc__minimal.a(exit.c.obj)
 .debug_frame   0x0000000000000000       0x28 lib/libc/minimal/liblib__libc__minimal.a(exit.c.obj)
 .text          0x0000000000000000        0x0 lib/libc/minimal/liblib__libc__minimal.a(strncasecmp.c.obj)
 .data          0x0000000000000000        0x0 lib/libc/minimal/liblib__libc__minimal.a(strncasecmp.c.obj)
 .bss           0x0000000000000000        0x0 lib/libc/minimal/liblib__libc__minimal.a(strncasecmp.c.obj)
 .text.strncasecmp
                0x0000000000000000       0x4c lib/libc/minimal/liblib__libc__minimal.a(strncasecmp.c.obj)
 .debug_info    0x0000000000000000      0x150 lib/libc/minimal/liblib__libc__minimal.a(strncasecmp.c.obj)
 .debug_abbrev  0x0000000000000000      0x106 lib/libc/minimal/liblib__libc__minimal.a(strncasecmp.c.obj)
 .debug_loc     0x0000000000000000      0x164 lib/libc/minimal/liblib__libc__minimal.a(strncasecmp.c.obj)
 .debug_aranges
                0x0000000000000000       0x20 lib/libc/minimal/liblib__libc__minimal.a(strncasecmp.c.obj)
 .debug_ranges  0x0000000000000000       0x28 lib/libc/minimal/liblib__libc__minimal.a(strncasecmp.c.obj)
 .debug_line    0x0000000000000000      0x1fd lib/libc/minimal/liblib__libc__minimal.a(strncasecmp.c.obj)
 .debug_str     0x0000000000000000      0x21a lib/libc/minimal/liblib__libc__minimal.a(strncasecmp.c.obj)
 .comment       0x0000000000000000       0x33 lib/libc/minimal/liblib__libc__minimal.a(strncasecmp.c.obj)
 .debug_frame   0x0000000000000000       0x2c lib/libc/minimal/liblib__libc__minimal.a(strncasecmp.c.obj)
 .text          0x0000000000000000        0x0 lib/libc/minimal/liblib__libc__minimal.a(strstr.c.obj)
 .data          0x0000000000000000        0x0 lib/libc/minimal/liblib__libc__minimal.a(strstr.c.obj)
 .bss           0x0000000000000000        0x0 lib/libc/minimal/liblib__libc__minimal.a(strstr.c.obj)
 .text.strstr   0x0000000000000000       0x40 lib/libc/minimal/liblib__libc__minimal.a(strstr.c.obj)
 .debug_info    0x0000000000000000      0x11a lib/libc/minimal/liblib__libc__minimal.a(strstr.c.obj)
 .debug_abbrev  0x0000000000000000       0xda lib/libc/minimal/liblib__libc__minimal.a(strstr.c.obj)
 .debug_loc     0x0000000000000000       0xf4 lib/libc/minimal/liblib__libc__minimal.a(strstr.c.obj)
 .debug_aranges
                0x0000000000000000       0x20 lib/libc/minimal/liblib__libc__minimal.a(strstr.c.obj)
 .debug_ranges  0x0000000000000000       0x10 lib/libc/minimal/liblib__libc__minimal.a(strstr.c.obj)
 .debug_line    0x0000000000000000      0x1b8 lib/libc/minimal/liblib__libc__minimal.a(strstr.c.obj)
 .debug_str     0x0000000000000000      0x200 lib/libc/minimal/liblib__libc__minimal.a(strstr.c.obj)
 .comment       0x0000000000000000       0x33 lib/libc/minimal/liblib__libc__minimal.a(strstr.c.obj)
 .debug_frame   0x0000000000000000       0x30 lib/libc/minimal/liblib__libc__minimal.a(strstr.c.obj)
 .text          0x0000000000000000        0x0 lib/libc/minimal/liblib__libc__minimal.a(string.c.obj)
 .data          0x0000000000000000        0x0 lib/libc/minimal/liblib__libc__minimal.a(string.c.obj)
 .bss           0x0000000000000000        0x0 lib/libc/minimal/liblib__libc__minimal.a(string.c.obj)
 .text.strchr   0x0000000000000000       0x1c lib/libc/minimal/liblib__libc__minimal.a(string.c.obj)
 .text.strrchr  0x0000000000000000       0x1a lib/libc/minimal/liblib__libc__minimal.a(string.c.obj)
 .text.strlen   0x0000000000000000        0xe lib/libc/minimal/liblib__libc__minimal.a(string.c.obj)
 .text.strnlen  0x0000000000000000       0x12 lib/libc/minimal/liblib__libc__minimal.a(string.c.obj)
 .text.strncmp  0x0000000000000000       0x1e lib/libc/minimal/liblib__libc__minimal.a(string.c.obj)
 .text.strcat   0x0000000000000000       0x12 lib/libc/minimal/liblib__libc__minimal.a(string.c.obj)
 .text.strncat  0x0000000000000000       0x28 lib/libc/minimal/liblib__libc__minimal.a(string.c.obj)
 .text.memcmp   0x0000000000000000       0x20 lib/libc/minimal/liblib__libc__minimal.a(string.c.obj)
 .text.memmove  0x0000000000000000       0x2e lib/libc/minimal/liblib__libc__minimal.a(string.c.obj)
 .text.memchr   0x0000000000000000       0x20 lib/libc/minimal/liblib__libc__minimal.a(string.c.obj)
 .text          0x0000000000000000        0x0 lib/libc/minimal/liblib__libc__minimal.a(strspn.c.obj)
 .data          0x0000000000000000        0x0 lib/libc/minimal/liblib__libc__minimal.a(strspn.c.obj)
 .bss           0x0000000000000000        0x0 lib/libc/minimal/liblib__libc__minimal.a(strspn.c.obj)
 .text.strspn   0x0000000000000000       0x20 lib/libc/minimal/liblib__libc__minimal.a(strspn.c.obj)
 .text.strcspn  0x0000000000000000       0x20 lib/libc/minimal/liblib__libc__minimal.a(strspn.c.obj)
 .debug_info    0x0000000000000000      0x128 lib/libc/minimal/liblib__libc__minimal.a(strspn.c.obj)
 .debug_abbrev  0x0000000000000000       0xcd lib/libc/minimal/liblib__libc__minimal.a(strspn.c.obj)
 .debug_loc     0x0000000000000000       0xcc lib/libc/minimal/liblib__libc__minimal.a(strspn.c.obj)
 .debug_aranges
                0x0000000000000000       0x28 lib/libc/minimal/liblib__libc__minimal.a(strspn.c.obj)
 .debug_ranges  0x0000000000000000       0x18 lib/libc/minimal/liblib__libc__minimal.a(strspn.c.obj)
 .debug_line    0x0000000000000000      0x1cb lib/libc/minimal/liblib__libc__minimal.a(strspn.c.obj)
 .debug_str     0x0000000000000000      0x209 lib/libc/minimal/liblib__libc__minimal.a(strspn.c.obj)
 .comment       0x0000000000000000       0x33 lib/libc/minimal/liblib__libc__minimal.a(strspn.c.obj)
 .debug_frame   0x0000000000000000       0x50 lib/libc/minimal/liblib__libc__minimal.a(strspn.c.obj)
 .text          0x0000000000000000        0x0 lib/libc/minimal/liblib__libc__minimal.a(prf.c.obj)
 .data          0x0000000000000000        0x0 lib/libc/minimal/liblib__libc__minimal.a(prf.c.obj)
 .bss           0x0000000000000000        0x0 lib/libc/minimal/liblib__libc__minimal.a(prf.c.obj)
 .text._to_x    0x0000000000000000       0x48 lib/libc/minimal/liblib__libc__minimal.a(prf.c.obj)
 .text._rlrshift
                0x0000000000000000       0x24 lib/libc/minimal/liblib__libc__minimal.a(prf.c.obj)
 .text._ldiv5   0x0000000000000000       0x52 lib/libc/minimal/liblib__libc__minimal.a(prf.c.obj)
 .text._get_digit
                0x0000000000000000       0x2e lib/libc/minimal/liblib__libc__minimal.a(prf.c.obj)
 .rodata.z_prf.str1.1
                0x0000000000000000        0xa lib/libc/minimal/liblib__libc__minimal.a(prf.c.obj)
 .text.z_prf    0x0000000000000000      0x9e0 lib/libc/minimal/liblib__libc__minimal.a(prf.c.obj)
 .debug_info    0x0000000000000000      0xe97 lib/libc/minimal/liblib__libc__minimal.a(prf.c.obj)
 .debug_abbrev  0x0000000000000000      0x3be lib/libc/minimal/liblib__libc__minimal.a(prf.c.obj)
 .debug_loc     0x0000000000000000     0x24f6 lib/libc/minimal/liblib__libc__minimal.a(prf.c.obj)
 .debug_aranges
                0x0000000000000000       0x40 lib/libc/minimal/liblib__libc__minimal.a(prf.c.obj)
 .debug_ranges  0x0000000000000000      0x198 lib/libc/minimal/liblib__libc__minimal.a(prf.c.obj)
 .debug_line    0x0000000000000000      0xf74 lib/libc/minimal/liblib__libc__minimal.a(prf.c.obj)
 .debug_str     0x0000000000000000      0x41c lib/libc/minimal/liblib__libc__minimal.a(prf.c.obj)
 .comment       0x0000000000000000       0x33 lib/libc/minimal/liblib__libc__minimal.a(prf.c.obj)
 .debug_frame   0x0000000000000000       0xb8 lib/libc/minimal/liblib__libc__minimal.a(prf.c.obj)
 .text          0x0000000000000000        0x0 lib/libc/minimal/liblib__libc__minimal.a(stdout_console.c.obj)
 .data          0x0000000000000000        0x0 lib/libc/minimal/liblib__libc__minimal.a(stdout_console.c.obj)
 .bss           0x0000000000000000        0x0 lib/libc/minimal/liblib__libc__minimal.a(stdout_console.c.obj)
 .text.zephyr_fputc
                0x0000000000000000       0x20 lib/libc/minimal/liblib__libc__minimal.a(stdout_console.c.obj)
 .text.fputc    0x0000000000000000        0x4 lib/libc/minimal/liblib__libc__minimal.a(stdout_console.c.obj)
 .text.zephyr_fwrite
                0x0000000000000000       0x26 lib/libc/minimal/liblib__libc__minimal.a(stdout_console.c.obj)
 .text.fputs    0x0000000000000000       0x22 lib/libc/minimal/liblib__libc__minimal.a(stdout_console.c.obj)
 .text.fwrite   0x0000000000000000        0x4 lib/libc/minimal/liblib__libc__minimal.a(stdout_console.c.obj)
 .text.puts     0x0000000000000000       0x20 lib/libc/minimal/liblib__libc__minimal.a(stdout_console.c.obj)
 .text          0x0000000000000000        0x0 lib/libc/minimal/liblib__libc__minimal.a(sprintf.c.obj)
 .data          0x0000000000000000        0x0 lib/libc/minimal/liblib__libc__minimal.a(sprintf.c.obj)
 .bss           0x0000000000000000        0x0 lib/libc/minimal/liblib__libc__minimal.a(sprintf.c.obj)
 .text.sprintf_out
                0x0000000000000000       0x1a lib/libc/minimal/liblib__libc__minimal.a(sprintf.c.obj)
 .text.snprintf
                0x0000000000000000       0x30 lib/libc/minimal/liblib__libc__minimal.a(sprintf.c.obj)
 .text.sprintf  0x0000000000000000       0x30 lib/libc/minimal/liblib__libc__minimal.a(sprintf.c.obj)
 .text.vsnprintf
                0x0000000000000000       0x24 lib/libc/minimal/liblib__libc__minimal.a(sprintf.c.obj)
 .text.vsprintf
                0x0000000000000000       0x28 lib/libc/minimal/liblib__libc__minimal.a(sprintf.c.obj)
 .debug_info    0x0000000000000000      0x3d4 lib/libc/minimal/liblib__libc__minimal.a(sprintf.c.obj)
 .debug_abbrev  0x0000000000000000      0x1b2 lib/libc/minimal/liblib__libc__minimal.a(sprintf.c.obj)
 .debug_loc     0x0000000000000000      0x279 lib/libc/minimal/liblib__libc__minimal.a(sprintf.c.obj)
 .debug_aranges
                0x0000000000000000       0x40 lib/libc/minimal/liblib__libc__minimal.a(sprintf.c.obj)
 .debug_ranges  0x0000000000000000       0x30 lib/libc/minimal/liblib__libc__minimal.a(sprintf.c.obj)
 .debug_line    0x0000000000000000      0x2cc lib/libc/minimal/liblib__libc__minimal.a(sprintf.c.obj)
 .debug_str     0x0000000000000000      0x25d lib/libc/minimal/liblib__libc__minimal.a(sprintf.c.obj)
 .comment       0x0000000000000000       0x33 lib/libc/minimal/liblib__libc__minimal.a(sprintf.c.obj)
 .debug_frame   0x0000000000000000       0xa4 lib/libc/minimal/liblib__libc__minimal.a(sprintf.c.obj)
 .text          0x0000000000000000        0x0 lib/libc/minimal/liblib__libc__minimal.a(fprintf.c.obj)
 .data          0x0000000000000000        0x0 lib/libc/minimal/liblib__libc__minimal.a(fprintf.c.obj)
 .bss           0x0000000000000000        0x0 lib/libc/minimal/liblib__libc__minimal.a(fprintf.c.obj)
 .text.fprintf  0x0000000000000000       0x24 lib/libc/minimal/liblib__libc__minimal.a(fprintf.c.obj)
 .text.vfprintf
                0x0000000000000000       0x10 lib/libc/minimal/liblib__libc__minimal.a(fprintf.c.obj)
 .text.printf   0x0000000000000000       0x24 lib/libc/minimal/liblib__libc__minimal.a(fprintf.c.obj)
 .text.vprintf  0x0000000000000000       0x10 lib/libc/minimal/liblib__libc__minimal.a(fprintf.c.obj)
 .debug_info    0x0000000000000000      0x25d lib/libc/minimal/liblib__libc__minimal.a(fprintf.c.obj)
 .debug_abbrev  0x0000000000000000      0x13b lib/libc/minimal/liblib__libc__minimal.a(fprintf.c.obj)
 .debug_loc     0x0000000000000000      0x11c lib/libc/minimal/liblib__libc__minimal.a(fprintf.c.obj)
 .debug_aranges
                0x0000000000000000       0x38 lib/libc/minimal/liblib__libc__minimal.a(fprintf.c.obj)
 .debug_ranges  0x0000000000000000       0x28 lib/libc/minimal/liblib__libc__minimal.a(fprintf.c.obj)
 .debug_line    0x0000000000000000      0x200 lib/libc/minimal/liblib__libc__minimal.a(fprintf.c.obj)
 .debug_str     0x0000000000000000      0x23d lib/libc/minimal/liblib__libc__minimal.a(fprintf.c.obj)
 .comment       0x0000000000000000       0x33 lib/libc/minimal/liblib__libc__minimal.a(fprintf.c.obj)
 .debug_frame   0x0000000000000000       0x8c lib/libc/minimal/liblib__libc__minimal.a(fprintf.c.obj)
 .text          0x0000000000000000        0x0 lib/libc/minimal/liblib__libc__minimal.a(gmtime.c.obj)
 .data          0x0000000000000000        0x0 lib/libc/minimal/liblib__libc__minimal.a(gmtime.c.obj)
 .bss           0x0000000000000000        0x0 lib/libc/minimal/liblib__libc__minimal.a(gmtime.c.obj)
 .text.gmtime_r
                0x0000000000000000      0x1cc lib/libc/minimal/liblib__libc__minimal.a(gmtime.c.obj)
 .text.gmtime   0x0000000000000000        0xc lib/libc/minimal/liblib__libc__minimal.a(gmtime.c.obj)
 .bss.shared.3712
                0x0000000000000000       0x24 lib/libc/minimal/liblib__libc__minimal.a(gmtime.c.obj)
 .debug_info    0x0000000000000000      0x350 lib/libc/minimal/liblib__libc__minimal.a(gmtime.c.obj)
 .debug_abbrev  0x0000000000000000      0x1ab lib/libc/minimal/liblib__libc__minimal.a(gmtime.c.obj)
 .debug_loc     0x0000000000000000      0x392 lib/libc/minimal/liblib__libc__minimal.a(gmtime.c.obj)
 .debug_aranges
                0x0000000000000000       0x28 lib/libc/minimal/liblib__libc__minimal.a(gmtime.c.obj)
 .debug_ranges  0x0000000000000000       0x38 lib/libc/minimal/liblib__libc__minimal.a(gmtime.c.obj)
 .debug_line    0x0000000000000000      0x380 lib/libc/minimal/liblib__libc__minimal.a(gmtime.c.obj)
 .debug_str     0x0000000000000000      0x307 lib/libc/minimal/liblib__libc__minimal.a(gmtime.c.obj)
 .comment       0x0000000000000000       0x33 lib/libc/minimal/liblib__libc__minimal.a(gmtime.c.obj)
 .debug_frame   0x0000000000000000       0x4c lib/libc/minimal/liblib__libc__minimal.a(gmtime.c.obj)
 .text          0x0000000000000000        0x0 lib/posix/liblib__posix.a(pthread_common.c.obj)
 .data          0x0000000000000000        0x0 lib/posix/liblib__posix.a(pthread_common.c.obj)
 .bss           0x0000000000000000        0x0 lib/posix/liblib__posix.a(pthread_common.c.obj)
 .debug_info    0x0000000000000000      0x9a7 lib/posix/liblib__posix.a(pthread_common.c.obj)
 .debug_abbrev  0x0000000000000000      0x19d lib/posix/liblib__posix.a(pthread_common.c.obj)
 .debug_aranges
                0x0000000000000000       0x18 lib/posix/liblib__posix.a(pthread_common.c.obj)
 .debug_line    0x0000000000000000      0x513 lib/posix/liblib__posix.a(pthread_common.c.obj)
 .debug_str     0x0000000000000000      0x798 lib/posix/liblib__posix.a(pthread_common.c.obj)
 .comment       0x0000000000000000       0x33 lib/posix/liblib__posix.a(pthread_common.c.obj)
 .text          0x0000000000000000        0x0 soc/arm/common/cortex_m/libsoc__arm__common__cortex_m.a(arm_mpu_regions.c.obj)
 .data          0x0000000000000000        0x0 soc/arm/common/cortex_m/libsoc__arm__common__cortex_m.a(arm_mpu_regions.c.obj)
 .bss           0x0000000000000000        0x0 soc/arm/common/cortex_m/libsoc__arm__common__cortex_m.a(arm_mpu_regions.c.obj)
 .text          0x0000000000000000        0x0 soc/arm/nordic_nrf/nrf52/libsoc__arm__nordic_nrf__nrf52.a(soc.c.obj)
 .data          0x0000000000000000        0x0 soc/arm/nordic_nrf/nrf52/libsoc__arm__nordic_nrf__nrf52.a(soc.c.obj)
 .bss           0x0000000000000000        0x0 soc/arm/nordic_nrf/nrf52/libsoc__arm__nordic_nrf__nrf52.a(soc.c.obj)
 .text.sys_arch_reboot
                0x0000000000000000       0x2c soc/arm/nordic_nrf/nrf52/libsoc__arm__nordic_nrf__nrf52.a(soc.c.obj)
 .text          0x0000000000000000        0x0 soc/arm/nordic_nrf/nrf52/libsoc__arm__nordic_nrf__nrf52.a(power.c.obj)
 .data          0x0000000000000000        0x0 soc/arm/nordic_nrf/nrf52/libsoc__arm__nordic_nrf__nrf52.a(power.c.obj)
 .bss           0x0000000000000000        0x0 soc/arm/nordic_nrf/nrf52/libsoc__arm__nordic_nrf__nrf52.a(power.c.obj)
 .text.arch_is_user_context
                0x0000000000000000       0x14 soc/arm/nordic_nrf/nrf52/libsoc__arm__nordic_nrf__nrf52.a(power.c.obj)
 .text.sys_set_power_state
                0x0000000000000000        0x4 soc/arm/nordic_nrf/nrf52/libsoc__arm__nordic_nrf__nrf52.a(power.c.obj)
 .text._sys_pm_power_state_exit_post_ops
                0x0000000000000000       0x12 soc/arm/nordic_nrf/nrf52/libsoc__arm__nordic_nrf__nrf52.a(power.c.obj)
 .debug_info    0x0000000000000000      0xc79 soc/arm/nordic_nrf/nrf52/libsoc__arm__nordic_nrf__nrf52.a(power.c.obj)
 .debug_abbrev  0x0000000000000000      0x2ef soc/arm/nordic_nrf/nrf52/libsoc__arm__nordic_nrf__nrf52.a(power.c.obj)
 .debug_loc     0x0000000000000000       0x8f soc/arm/nordic_nrf/nrf52/libsoc__arm__nordic_nrf__nrf52.a(power.c.obj)
 .debug_aranges
                0x0000000000000000       0x30 soc/arm/nordic_nrf/nrf52/libsoc__arm__nordic_nrf__nrf52.a(power.c.obj)
 .debug_ranges  0x0000000000000000       0x38 soc/arm/nordic_nrf/nrf52/libsoc__arm__nordic_nrf__nrf52.a(power.c.obj)
 .debug_line    0x0000000000000000      0x661 soc/arm/nordic_nrf/nrf52/libsoc__arm__nordic_nrf__nrf52.a(power.c.obj)
 .debug_str     0x0000000000000000      0x989 soc/arm/nordic_nrf/nrf52/libsoc__arm__nordic_nrf__nrf52.a(power.c.obj)
 .comment       0x0000000000000000       0x33 soc/arm/nordic_nrf/nrf52/libsoc__arm__nordic_nrf__nrf52.a(power.c.obj)
 .debug_frame   0x0000000000000000       0x48 soc/arm/nordic_nrf/nrf52/libsoc__arm__nordic_nrf__nrf52.a(power.c.obj)
 .text          0x0000000000000000        0x0 drivers/gpio/libdrivers__gpio.a(gpio_nrfx.c.obj)
 .data          0x0000000000000000        0x0 drivers/gpio/libdrivers__gpio.a(gpio_nrfx.c.obj)
 .bss           0x0000000000000000        0x0 drivers/gpio/libdrivers__gpio.a(gpio_nrfx.c.obj)
 .text          0x0000000000000000        0x0 drivers/gpio/libdrivers__gpio.a(gpio_handlers.c.obj)
 .data          0x0000000000000000        0x0 drivers/gpio/libdrivers__gpio.a(gpio_handlers.c.obj)
 .bss           0x0000000000000000        0x0 drivers/gpio/libdrivers__gpio.a(gpio_handlers.c.obj)
 .text          0x0000000000000000        0x0 drivers/serial/libdrivers__serial.a(uart_nrfx_uart.c.obj)
 .data          0x0000000000000000        0x0 drivers/serial/libdrivers__serial.a(uart_nrfx_uart.c.obj)
 .bss           0x0000000000000000        0x0 drivers/serial/libdrivers__serial.a(uart_nrfx_uart.c.obj)
 .text          0x0000000000000000        0x0 drivers/serial/libdrivers__serial.a(uart_nrfx_uarte.c.obj)
 .data          0x0000000000000000        0x0 drivers/serial/libdrivers__serial.a(uart_nrfx_uarte.c.obj)
 .bss           0x0000000000000000        0x0 drivers/serial/libdrivers__serial.a(uart_nrfx_uarte.c.obj)
 .text          0x0000000000000000        0x0 drivers/serial/libdrivers__serial.a(uart_handlers.c.obj)
 .data          0x0000000000000000        0x0 drivers/serial/libdrivers__serial.a(uart_handlers.c.obj)
 .bss           0x0000000000000000        0x0 drivers/serial/libdrivers__serial.a(uart_handlers.c.obj)
 .text          0x0000000000000000        0x0 ../modules/nordic/lib..__modules__hal__nordic.a(system_nrf52840.c.obj)
 .data          0x0000000000000000        0x0 ../modules/nordic/lib..__modules__hal__nordic.a(system_nrf52840.c.obj)
 .bss           0x0000000000000000        0x0 ../modules/nordic/lib..__modules__hal__nordic.a(system_nrf52840.c.obj)
 .text.SystemCoreClockUpdate
                0x0000000000000000       0x10 ../modules/nordic/lib..__modules__hal__nordic.a(system_nrf52840.c.obj)
 .text          0x0000000000000000        0x0 ../modules/nordic/lib..__modules__hal__nordic.a(nrfx_glue.c.obj)
 .data          0x0000000000000000        0x0 ../modules/nordic/lib..__modules__hal__nordic.a(nrfx_glue.c.obj)
 .bss           0x0000000000000000        0x0 ../modules/nordic/lib..__modules__hal__nordic.a(nrfx_glue.c.obj)
 .text.nrfx_isr
                0x0000000000000000        0x2 ../modules/nordic/lib..__modules__hal__nordic.a(nrfx_glue.c.obj)
 .rodata.nrfx_error_string_get.str1.1
                0x0000000000000000      0x178 ../modules/nordic/lib..__modules__hal__nordic.a(nrfx_glue.c.obj)
 .text.nrfx_error_string_get
                0x0000000000000000       0xd4 ../modules/nordic/lib..__modules__hal__nordic.a(nrfx_glue.c.obj)
 .text          0x0000000000000000        0x0 kernel/libkernel.a(device.c.obj)
 .data          0x0000000000000000        0x0 kernel/libkernel.a(device.c.obj)
 .bss           0x0000000000000000        0x0 kernel/libkernel.a(device.c.obj)
 .text.device_busy_set
                0x0000000000000000        0x2 kernel/libkernel.a(device.c.obj)
 .text.device_busy_clear
                0x0000000000000000        0x2 kernel/libkernel.a(device.c.obj)
 .text          0x0000000000000000        0x0 kernel/libkernel.a(errno.c.obj)
 .data          0x0000000000000000        0x0 kernel/libkernel.a(errno.c.obj)
 .bss           0x0000000000000000        0x0 kernel/libkernel.a(errno.c.obj)
 .text.z_impl_z_errno
                0x0000000000000000        0xc kernel/libkernel.a(errno.c.obj)
 .text          0x0000000000000000        0x0 kernel/libkernel.a(fatal.c.obj)
 .data          0x0000000000000000        0x0 kernel/libkernel.a(fatal.c.obj)
 .bss           0x0000000000000000        0x0 kernel/libkernel.a(fatal.c.obj)
 .text.k_fatal_halt
                0x0000000000000000        0x6 kernel/libkernel.a(fatal.c.obj)
 .text          0x0000000000000000        0x0 kernel/libkernel.a(idle.c.obj)
 .data          0x0000000000000000        0x0 kernel/libkernel.a(idle.c.obj)
 .bss           0x0000000000000000        0x0 kernel/libkernel.a(idle.c.obj)
 .bss.sys_pm_idle_exit_notify
                0x0000000000000000        0x1 kernel/libkernel.a(idle.c.obj)
 .text          0x0000000000000000        0x0 kernel/libkernel.a(init.c.obj)
 .data          0x0000000000000000        0x0 kernel/libkernel.a(init.c.obj)
 .bss           0x0000000000000000        0x0 kernel/libkernel.a(init.c.obj)
 .text.main     0x0000000000000000        0x4 kernel/libkernel.a(init.c.obj)
 .text          0x0000000000000000        0x0 kernel/libkernel.a(mem_slab.c.obj)
 .data          0x0000000000000000        0x0 kernel/libkernel.a(mem_slab.c.obj)
 .bss           0x0000000000000000        0x0 kernel/libkernel.a(mem_slab.c.obj)
 .text          0x0000000000000000        0x0 kernel/libkernel.a(mutex.c.obj)
 .data          0x0000000000000000        0x0 kernel/libkernel.a(mutex.c.obj)
 .bss           0x0000000000000000        0x0 kernel/libkernel.a(mutex.c.obj)
 .text          0x0000000000000000        0x0 kernel/libkernel.a(queue.c.obj)
 .data          0x0000000000000000        0x0 kernel/libkernel.a(queue.c.obj)
 .bss           0x0000000000000000        0x0 kernel/libkernel.a(queue.c.obj)
 .text.k_queue_insert
                0x0000000000000000        0x6 kernel/libkernel.a(queue.c.obj)
 .text.k_queue_append
                0x0000000000000000        0xa kernel/libkernel.a(queue.c.obj)
 .text.k_queue_prepend
                0x0000000000000000        0xa kernel/libkernel.a(queue.c.obj)
 .text.k_queue_append_list
                0x0000000000000000       0x6e kernel/libkernel.a(queue.c.obj)
 .text.k_queue_merge_slist
                0x0000000000000000       0x1c kernel/libkernel.a(queue.c.obj)
 .text          0x0000000000000000        0x0 kernel/libkernel.a(sched.c.obj)
 .data          0x0000000000000000        0x0 kernel/libkernel.a(sched.c.obj)
 .bss           0x0000000000000000        0x0 kernel/libkernel.a(sched.c.obj)
 .text.z_is_t1_higher_prio_than_t2
                0x0000000000000000       0x12 kernel/libkernel.a(sched.c.obj)
 .text.z_priq_dumb_add
                0x0000000000000000       0x42 kernel/libkernel.a(sched.c.obj)
 .text.z_pend_thread
                0x0000000000000000        0x4 kernel/libkernel.a(sched.c.obj)
 .text.z_pend_curr_irqlock
                0x0000000000000000       0x48 kernel/libkernel.a(sched.c.obj)
 .text.z_priq_rb_lessthan
                0x0000000000000000       0x24 kernel/libkernel.a(sched.c.obj)
 .text.z_priq_rb_add
                0x0000000000000000       0x5c kernel/libkernel.a(sched.c.obj)
 .text.z_priq_rb_remove
                0x0000000000000000       0x10 kernel/libkernel.a(sched.c.obj)
 .text.z_priq_rb_best
                0x0000000000000000       0x10 kernel/libkernel.a(sched.c.obj)
 .text.z_priq_mq_add
                0x0000000000000000       0x32 kernel/libkernel.a(sched.c.obj)
 .text.z_priq_mq_remove
                0x0000000000000000       0x36 kernel/libkernel.a(sched.c.obj)
 .text.z_priq_mq_best
                0x0000000000000000       0x28 kernel/libkernel.a(sched.c.obj)
 .text.z_impl_k_thread_priority_get
                0x0000000000000000        0x6 kernel/libkernel.a(sched.c.obj)
 .text.z_impl_k_thread_priority_set
                0x0000000000000000        0x4 kernel/libkernel.a(sched.c.obj)
 .text          0x0000000000000000        0x0 kernel/libkernel.a(sem.c.obj)
 .data          0x0000000000000000        0x0 kernel/libkernel.a(sem.c.obj)
 .bss           0x0000000000000000        0x0 kernel/libkernel.a(sem.c.obj)
 .text          0x0000000000000000        0x0 kernel/libkernel.a(thread.c.obj)
 .data          0x0000000000000000        0x0 kernel/libkernel.a(thread.c.obj)
 .bss           0x0000000000000000        0x0 kernel/libkernel.a(thread.c.obj)
 .text.k_thread_foreach
                0x0000000000000000        0x2 kernel/libkernel.a(thread.c.obj)
 .text.k_thread_foreach_unlocked
                0x0000000000000000        0x2 kernel/libkernel.a(thread.c.obj)
 .text.z_thread_essential_set
                0x0000000000000000       0x14 kernel/libkernel.a(thread.c.obj)
 .text.z_thread_essential_clear
                0x0000000000000000       0x14 kernel/libkernel.a(thread.c.obj)
 .text.z_is_thread_essential
                0x0000000000000000       0x10 kernel/libkernel.a(thread.c.obj)
 .text.z_impl_k_thread_name_copy
                0x0000000000000000        0x6 kernel/libkernel.a(thread.c.obj)
 .rodata.k_thread_state_str.str1.1
                0x0000000000000000       0x3f kernel/libkernel.a(thread.c.obj)
 .text.k_thread_state_str
                0x0000000000000000       0x74 kernel/libkernel.a(thread.c.obj)
 .text.z_impl_k_thread_start
                0x0000000000000000        0x4 kernel/libkernel.a(thread.c.obj)
 .text.z_init_thread_base
                0x0000000000000000       0x10 kernel/libkernel.a(thread.c.obj)
 .text.k_thread_user_mode_enter
                0x0000000000000000       0x38 kernel/libkernel.a(thread.c.obj)
 .text.z_impl_k_float_disable
                0x0000000000000000        0x6 kernel/libkernel.a(thread.c.obj)
 .text          0x0000000000000000        0x0 kernel/libkernel.a(timeout.c.obj)
 .data          0x0000000000000000        0x0 kernel/libkernel.a(timeout.c.obj)
 .bss           0x0000000000000000        0x0 kernel/libkernel.a(timeout.c.obj)
 .text.z_impl_k_uptime_ticks
                0x0000000000000000        0x4 kernel/libkernel.a(timeout.c.obj)
 .text          0x0000000000000000        0x0 kernel/libkernel.a(timer.c.obj)
 .data          0x0000000000000000        0x0 kernel/libkernel.a(timer.c.obj)
 .bss           0x0000000000000000        0x0 kernel/libkernel.a(timer.c.obj)
 .text          0x0000000000000000        0x0 kernel/libkernel.a(futex.c.obj)
 .data          0x0000000000000000        0x0 kernel/libkernel.a(futex.c.obj)
 .bss           0x0000000000000000        0x0 kernel/libkernel.a(futex.c.obj)
 .text          0x0000000000000000        0x0 kernel/libkernel.a(mem_domain.c.obj)
 .data          0x0000000000000000        0x0 kernel/libkernel.a(mem_domain.c.obj)
 .bss           0x0000000000000000        0x0 kernel/libkernel.a(mem_domain.c.obj)
 .text.k_mem_domain_init
                0x0000000000000000       0x62 kernel/libkernel.a(mem_domain.c.obj)
 .text.k_mem_domain_destroy
                0x0000000000000000       0x62 kernel/libkernel.a(mem_domain.c.obj)
 .text.k_mem_domain_add_partition
                0x0000000000000000       0x5c kernel/libkernel.a(mem_domain.c.obj)
 .text.k_mem_domain_remove_partition
                0x0000000000000000       0x64 kernel/libkernel.a(mem_domain.c.obj)
 .text.k_mem_domain_remove_thread
                0x0000000000000000       0x32 kernel/libkernel.a(mem_domain.c.obj)
 .text          0x0000000000000000        0x0 kernel/libkernel.a(userspace.c.obj)
 .data          0x0000000000000000        0x0 kernel/libkernel.a(userspace.c.obj)
 .bss           0x0000000000000000        0x0 kernel/libkernel.a(userspace.c.obj)
 .text.k_object_access_revoke
                0x0000000000000000       0x16 kernel/libkernel.a(userspace.c.obj)
 .text.z_impl_k_object_release
                0x0000000000000000        0xc kernel/libkernel.a(userspace.c.obj)
 .text.k_object_access_all_grant
                0x0000000000000000       0x12 kernel/libkernel.a(userspace.c.obj)
 .text.z_object_recycle
                0x0000000000000000       0x2a kernel/libkernel.a(userspace.c.obj)
 .text.z_user_alloc_from_copy
                0x0000000000000000       0xb4 kernel/libkernel.a(userspace.c.obj)
 .rodata.z_user_to_copy.str1.1
                0x0000000000000000        0x6 kernel/libkernel.a(userspace.c.obj)
 .text.z_user_to_copy
                0x0000000000000000       0x7c kernel/libkernel.a(userspace.c.obj)
 .text.z_user_string_alloc_copy
                0x0000000000000000       0x9c kernel/libkernel.a(userspace.c.obj)
 .rodata.__func__.10178
                0x0000000000000000       0x17 kernel/libkernel.a(userspace.c.obj)
 .text          0x0000000000000000        0x0 kernel/libkernel.a(mempool.c.obj)
 .data          0x0000000000000000        0x0 kernel/libkernel.a(mempool.c.obj)
 .bss           0x0000000000000000        0x0 kernel/libkernel.a(mempool.c.obj)
 .text.k_mem_pool_free
                0x0000000000000000        0x4 kernel/libkernel.a(mempool.c.obj)
 .text.k_malloc
                0x0000000000000000        0xc kernel/libkernel.a(mempool.c.obj)
 .text.k_calloc
                0x0000000000000000       0x24 kernel/libkernel.a(mempool.c.obj)
 .text.k_thread_system_pool_assign
                0x0000000000000000        0xc kernel/libkernel.a(mempool.c.obj)
 .text          0x0000000000000000        0x0 kernel/libkernel.a(userspace_handler.c.obj)
 .data          0x0000000000000000        0x0 kernel/libkernel.a(userspace_handler.c.obj)
 .bss           0x0000000000000000        0x0 kernel/libkernel.a(userspace_handler.c.obj)
 .text          0x0000000000000000        0x0 kernel/libkernel.a(kheap.c.obj)
 .data          0x0000000000000000        0x0 kernel/libkernel.a(kheap.c.obj)
 .bss           0x0000000000000000        0x0 kernel/libkernel.a(kheap.c.obj)
 .text          0x0000000000000000        0x0 CMakeFiles/offsets.dir/arch/arm/core/offsets/offsets.c.obj
 .data          0x0000000000000000        0x0 CMakeFiles/offsets.dir/arch/arm/core/offsets/offsets.c.obj
 .bss           0x0000000000000000        0x0 CMakeFiles/offsets.dir/arch/arm/core/offsets/offsets.c.obj
 .text          0x0000000000000000       0xa0 /home/rgujju/zephyr-sdk/arm-zephyr-eabi/bin/../lib/gcc/arm-zephyr-eabi/9.2.0/thumb/v7e-m/nofp/libgcc.a(_aeabi_ldivmod.o)
 .data          0x0000000000000000        0x0 /home/rgujju/zephyr-sdk/arm-zephyr-eabi/bin/../lib/gcc/arm-zephyr-eabi/9.2.0/thumb/v7e-m/nofp/libgcc.a(_aeabi_ldivmod.o)
 .bss           0x0000000000000000        0x0 /home/rgujju/zephyr-sdk/arm-zephyr-eabi/bin/../lib/gcc/arm-zephyr-eabi/9.2.0/thumb/v7e-m/nofp/libgcc.a(_aeabi_ldivmod.o)
 .debug_frame   0x0000000000000000       0x44 /home/rgujju/zephyr-sdk/arm-zephyr-eabi/bin/../lib/gcc/arm-zephyr-eabi/9.2.0/thumb/v7e-m/nofp/libgcc.a(_aeabi_ldivmod.o)
 .data          0x0000000000000000        0x0 /home/rgujju/zephyr-sdk/arm-zephyr-eabi/bin/../lib/gcc/arm-zephyr-eabi/9.2.0/thumb/v7e-m/nofp/libgcc.a(_aeabi_uldivmod.o)
 .bss           0x0000000000000000        0x0 /home/rgujju/zephyr-sdk/arm-zephyr-eabi/bin/../lib/gcc/arm-zephyr-eabi/9.2.0/thumb/v7e-m/nofp/libgcc.a(_aeabi_uldivmod.o)
 .data          0x0000000000000000        0x0 /home/rgujju/zephyr-sdk/arm-zephyr-eabi/bin/../lib/gcc/arm-zephyr-eabi/9.2.0/thumb/v7e-m/nofp/libgcc.a(_udivmoddi4.o)
 .bss           0x0000000000000000        0x0 /home/rgujju/zephyr-sdk/arm-zephyr-eabi/bin/../lib/gcc/arm-zephyr-eabi/9.2.0/thumb/v7e-m/nofp/libgcc.a(_udivmoddi4.o)
 .ARM.extab     0x0000000000000000        0x0 /home/rgujju/zephyr-sdk/arm-zephyr-eabi/bin/../lib/gcc/arm-zephyr-eabi/9.2.0/thumb/v7e-m/nofp/libgcc.a(_udivmoddi4.o)
 .data          0x0000000000000000        0x0 /home/rgujju/zephyr-sdk/arm-zephyr-eabi/bin/../lib/gcc/arm-zephyr-eabi/9.2.0/thumb/v7e-m/nofp/libgcc.a(_dvmd_tls.o)
 .bss           0x0000000000000000        0x0 /home/rgujju/zephyr-sdk/arm-zephyr-eabi/bin/../lib/gcc/arm-zephyr-eabi/9.2.0/thumb/v7e-m/nofp/libgcc.a(_dvmd_tls.o)

Memory Configuration

Name             Origin             Length             Attributes
FLASH            0x0000000000000000 0x0000000000100000 xr
SRAM             0x0000000020000000 0x0000000000040000 xw
IDT_LIST         0x0000000020040000 0x0000000000000800 xw
*default*        0x0000000000000000 0xffffffffffffffff

Linker script and memory map

LOAD CMakeFiles/app_smem_unaligned_prebuilt.dir/misc/empty_file.c.obj
                0x0000000000000020                _region_min_align = 0x20

.rel.plt        0x0000000000000000        0x0
 *(SORT_BY_ALIGNMENT(.rel.plt))
                [!provide]                        PROVIDE (__rel_iplt_start = .)
 *(SORT_BY_ALIGNMENT(.rel.iplt))
 .rel.iplt      0x0000000000000000        0x0 ../app/libapp.a(led.c.obj)
                [!provide]                        PROVIDE (__rel_iplt_end = .)

.rela.plt       0x0000000000000000        0x0
 *(SORT_BY_ALIGNMENT(.rela.plt))
                [!provide]                        PROVIDE (__rela_iplt_start = .)
 *(SORT_BY_ALIGNMENT(.rela.iplt))
                [!provide]                        PROVIDE (__rela_iplt_end = .)

.rel.dyn
 *(SORT_BY_ALIGNMENT(.rel.*))

.rela.dyn
 *(SORT_BY_ALIGNMENT(.rela.*))

/DISCARD/
 *(SORT_BY_ALIGNMENT(.plt))
 *(SORT_BY_ALIGNMENT(.iplt))
 *(SORT_BY_ALIGNMENT(.got.plt))
 *(SORT_BY_ALIGNMENT(.igot.plt))
 *(SORT_BY_ALIGNMENT(.got))
 *(SORT_BY_ALIGNMENT(.igot))
 *(SORT_BY_ALIGNMENT(.note.GNU-stack))
                0x0000000000000000                _image_rom_start = 0x0

rom_start       0x0000000000000000      0x100
                0x0000000000000000                . = 0x0
                0x0000000000000000                . = ALIGN (0x4)
                0x0000000000000000                _vector_start = .
 *(SORT_BY_ALIGNMENT(.exc_vector_table))
 *(SORT_BY_ALIGNMENT(.exc_vector_table.*))
 .exc_vector_table._vector_table_section
                0x0000000000000000       0x40 arch/arch/arm/core/aarch32/cortex_m/libarch__arm__core__aarch32__cortex_m.a(vector_table.S.obj)
                0x0000000000000000                _vector_table
 *(SORT_BY_ALIGNMENT(.gnu.linkonce.irq_vector_table))
 .gnu.linkonce.irq_vector_table
                0x0000000000000040       0xc0 arch/common/libarch__common.a(isr_tables.c.obj)
                0x0000000000000040                _irq_vector_table
 *(SORT_BY_ALIGNMENT(.vectors))
                0x0000000000000100                _vector_end = .
 *(SORT_BY_ALIGNMENT(.openocd_dbg))
 *(SORT_BY_ALIGNMENT(.openocd_dbg.*))

text            0x0000000000000100     0x9a58
                0x0000000000000100                _image_text_start = .
                0x0000000000000100                _kobject_text_area_start = .
 *(SORT_BY_ALIGNMENT(.kobject_data.text*))
                0x0000000000000100                _kobject_text_area_end = .
                0x0000000000000100                _kobject_text_area_used = (_kobject_text_area_end - _kobject_text_area_start)
                0x0000000000000100                PROVIDE (z_object_find = .)
                0x0000000000000100                PROVIDE (z_object_wordlist_foreach = .)
                0x0000000000000200                . = MAX (., (_kobject_text_area_start + 0x100))
 *fill*         0x0000000000000100      0x100 
                0x0000000000000001                ASSERT ((0x100 >= _kobject_text_area_used), The configuration system has incorrectly set
'CONFIG_KOBJECT_TEXT_AREA' to
256, which is not big enough. You must
through Kconfig either disable 'CONFIG_USERSPACE', or set
'CONFIG_KOBJECT_TEXT_AREA' to a value larger than
256 .)
 *(SORT_BY_ALIGNMENT(.text))
 .text          0x0000000000000200       0x30 /home/rgujju/zephyr-sdk/arm-zephyr-eabi/bin/../lib/gcc/arm-zephyr-eabi/9.2.0/thumb/v7e-m/nofp/libgcc.a(_aeabi_uldivmod.o)
                0x0000000000000200                __aeabi_uldivmod
 .text          0x0000000000000230      0x2c4 /home/rgujju/zephyr-sdk/arm-zephyr-eabi/bin/../lib/gcc/arm-zephyr-eabi/9.2.0/thumb/v7e-m/nofp/libgcc.a(_udivmoddi4.o)
                0x0000000000000230                __udivmoddi4
 .text          0x00000000000004f4        0x4 /home/rgujju/zephyr-sdk/arm-zephyr-eabi/bin/../lib/gcc/arm-zephyr-eabi/9.2.0/thumb/v7e-m/nofp/libgcc.a(_dvmd_tls.o)
                0x00000000000004f4                __aeabi_ldiv0
                0x00000000000004f4                __aeabi_idiv0
 *(SORT_BY_ALIGNMENT(.text.*))
 .text.initLeds
                0x00000000000004f8       0x44 ../app/libapp.a(led.c.obj)
                0x00000000000004f8                initLeds
 .text.z_impl_SetLed
                0x000000000000053c       0x70 ../app/libapp.a(led.c.obj)
                0x000000000000053c                z_impl_SetLed
 .text.z_mrsh_SetLed
                0x00000000000005ac       0x18 ../app/libapp.a(led.c.obj)
                0x00000000000005ac                z_mrsh_SetLed
 .text.main     0x00000000000005c4       0x8c ../app/libapp.a(main.c.obj)
                0x00000000000005c4                main
 .text.char_out
                0x0000000000000650       0x10 libzephyr.a(printk.c.obj)
 .text._printk_dec_ulong
                0x0000000000000660       0xa0 libzephyr.a(printk.c.obj)
 .text.__printk_hook_install
                0x0000000000000700        0xc libzephyr.a(printk.c.obj)
                0x0000000000000700                __printk_hook_install
 .text.z_vprintk
                0x000000000000070c      0x328 libzephyr.a(printk.c.obj)
                0x000000000000070c                z_vprintk
 .text.z_impl_k_str_out
                0x0000000000000a34       0x1c libzephyr.a(printk.c.obj)
                0x0000000000000a34                z_impl_k_str_out
 .text.vprintk  0x0000000000000a50       0x4c libzephyr.a(printk.c.obj)
                0x0000000000000a50                vprintk
 .text.z_mrsh_k_str_out
                0x0000000000000a9c       0x88 libzephyr.a(printk.c.obj)
                0x0000000000000a9c                z_mrsh_k_str_out
 .text.vsnprintk
                0x0000000000000b24       0x28 libzephyr.a(printk.c.obj)
                0x0000000000000b24                vsnprintk
 .text.check_sys_mutex_addr
                0x0000000000000b4c       0x70 libzephyr.a(mutex.c.obj)
 .text.z_mrsh_z_sys_mutex_kernel_lock
                0x0000000000000bbc       0x30 libzephyr.a(mutex.c.obj)
                0x0000000000000bbc                z_mrsh_z_sys_mutex_kernel_lock
 .text.z_impl_z_sys_mutex_kernel_unlock
                0x0000000000000bec       0x4c libzephyr.a(mutex.c.obj)
                0x0000000000000bec                z_impl_z_sys_mutex_kernel_unlock
 .text.z_mrsh_z_sys_mutex_kernel_unlock
                0x0000000000000c38       0x28 libzephyr.a(mutex.c.obj)
                0x0000000000000c38                z_mrsh_z_sys_mutex_kernel_unlock
 .text.enable_logger
                0x0000000000000c60       0x90 libzephyr.a(log_core.c.obj)
 .text.k_sem_give.constprop.0
                0x0000000000000cf0       0x24 libzephyr.a(log_core.c.obj)
 .text.log_core_init
                0x0000000000000d14       0x40 libzephyr.a(log_core.c.obj)
                0x0000000000000d14                log_core_init
 .text.dropped_notify
                0x0000000000000d54       0x4c libzephyr.a(log_core.c.obj)
                0x0000000000000d54                dropped_notify
 .text.z_mrsh_log_buffered_cnt
                0x0000000000000da0       0x18 libzephyr.a(log_core.c.obj)
                0x0000000000000da0                z_mrsh_log_buffered_cnt
 .text.log_dropped
                0x0000000000000db8       0x20 libzephyr.a(log_core.c.obj)
                0x0000000000000db8                log_dropped
 .text.log_source_name_get
                0x0000000000000dd8       0x1c libzephyr.a(log_core.c.obj)
                0x0000000000000dd8                log_source_name_get
 .text.log_backend_enable
                0x0000000000000df4       0x30 libzephyr.a(log_core.c.obj)
                0x0000000000000df4                log_backend_enable
 .text.log_init
                0x0000000000000e24       0x54 libzephyr.a(log_core.c.obj)
                0x0000000000000e24                log_init
 .text.log_strdup
                0x0000000000000e78       0x74 libzephyr.a(log_core.c.obj)
                0x0000000000000e78                log_strdup
 .text.log_is_strdup
                0x0000000000000eec       0x1c libzephyr.a(log_core.c.obj)
                0x0000000000000eec                log_is_strdup
 .text.log_free
                0x0000000000000f08       0x34 libzephyr.a(log_core.c.obj)
                0x0000000000000f08                log_free
 .text.z_impl_log_process
                0x0000000000000f3c      0x18c libzephyr.a(log_core.c.obj)
                0x0000000000000f3c                z_impl_log_process
 .text.z_mrsh_log_process
                0x00000000000010c8       0x1c libzephyr.a(log_core.c.obj)
                0x00000000000010c8                z_mrsh_log_process
 .text.log_process_thread_func
                0x00000000000010e4       0x64 libzephyr.a(log_core.c.obj)
 .text.z_impl_log_panic
                0x0000000000001148       0x48 libzephyr.a(log_core.c.obj)
                0x0000000000001148                z_impl_log_panic
 .text.z_mrsh_log_panic
                0x0000000000001190       0x18 libzephyr.a(log_core.c.obj)
                0x0000000000001190                z_mrsh_log_panic
 .text.msg_finalize
                0x00000000000011a8       0xe8 libzephyr.a(log_core.c.obj)
 .text.z_vrfy_log_filter_set
                0x0000000000001290       0xdc libzephyr.a(log_core.c.obj)
                0x0000000000001290                z_vrfy_log_filter_set
 .text.z_mrsh_log_filter_set
                0x000000000000136c       0x14 libzephyr.a(log_core.c.obj)
                0x000000000000136c                z_mrsh_log_filter_set
 .text.z_vrfy_z_log_string_from_user
                0x0000000000001380      0x168 libzephyr.a(log_core.c.obj)
                0x0000000000001380                z_vrfy_z_log_string_from_user
 .text.z_mrsh_z_log_string_from_user
                0x00000000000014e8       0x18 libzephyr.a(log_core.c.obj)
                0x00000000000014e8                z_mrsh_z_log_string_from_user
 .text.z_vrfy_z_log_hexdump_from_user
                0x0000000000001500      0x1b8 libzephyr.a(log_core.c.obj)
                0x0000000000001500                z_vrfy_z_log_hexdump_from_user
 .text.z_mrsh_z_log_hexdump_from_user
                0x00000000000016b8       0x18 libzephyr.a(log_core.c.obj)
                0x00000000000016b8                z_mrsh_z_log_hexdump_from_user
 .text.log_msg_pool_init
                0x00000000000016d0       0x14 libzephyr.a(log_msg.c.obj)
                0x00000000000016d0                log_msg_pool_init
 .text.log_msg_no_space_handle
                0x00000000000016e4       0x5c libzephyr.a(log_msg.c.obj)
                0x00000000000016e4                log_msg_no_space_handle
 .text.log_msg_chunk_alloc
                0x0000000000001740       0x28 libzephyr.a(log_msg.c.obj)
                0x0000000000001740                log_msg_chunk_alloc
 .text.msg_free
                0x0000000000001768       0x98 libzephyr.a(log_msg.c.obj)
 .text.print_formatted
                0x0000000000001800       0x24 libzephyr.a(log_output.c.obj)
 .text.prefix_print
                0x0000000000001824      0x11c libzephyr.a(log_output.c.obj)
 .text.postfix_print
                0x0000000000001940       0x3c libzephyr.a(log_output.c.obj)
 .text.hexdump_line_print
                0x000000000000197c       0xdc libzephyr.a(log_output.c.obj)
 .text.log_output_msg_process
                0x0000000000001a58       0xf4 libzephyr.a(log_output.c.obj)
                0x0000000000001a58                log_output_msg_process
 .text.log_output_dropped_process
                0x0000000000001b4c       0x54 libzephyr.a(log_output.c.obj)
                0x0000000000001b4c                log_output_dropped_process
 .text.log_output_timestamp_freq_set
                0x0000000000001ba0       0x30 libzephyr.a(log_output.c.obj)
                0x0000000000001ba0                log_output_timestamp_freq_set
 .text.panic    0x0000000000001bd0        0xc libzephyr.a(log_backend_uart.c.obj)
 .text.dropped  0x0000000000001bdc        0xc libzephyr.a(log_backend_uart.c.obj)
 .text.put      0x0000000000001be8       0x24 libzephyr.a(log_backend_uart.c.obj)
 .text.log_backend_uart_init
                0x0000000000001c0c       0x30 libzephyr.a(log_backend_uart.c.obj)
 .text.log_backend_rtt_init
                0x0000000000001c3c        0xc libzephyr.a(log_backend_rtt.c.obj)
 .text.panic    0x0000000000001c48       0x14 libzephyr.a(log_backend_rtt.c.obj)
 .text.dropped  0x0000000000001c5c        0xc libzephyr.a(log_backend_rtt.c.obj)
 .text.put      0x0000000000001c68       0x24 libzephyr.a(log_backend_rtt.c.obj)
 .text.on_failed_write.part.0
                0x0000000000001c8c       0x48 libzephyr.a(log_backend_rtt.c.obj)
 .text.data_out_block_mode
                0x0000000000001cd4       0xc0 libzephyr.a(log_backend_rtt.c.obj)
 .text.console_out
                0x0000000000001d94       0x24 libzephyr.a(uart_console.c.obj)
 .text.uart_console_init
                0x0000000000001db8       0x44 libzephyr.a(uart_console.c.obj)
 .text.clkstarted_handle.constprop.0
                0x0000000000001dfc       0x54 libzephyr.a(nrf_power_clock.c.obj)
 .text.nrf_power_clock_isr
                0x0000000000001e50       0x64 libzephyr.a(nrf_power_clock.c.obj)
                0x0000000000001e50                nrf_power_clock_isr
 .text.handle_next_tick_case
                0x0000000000001eb4       0x28 libzephyr.a(nrf_rtc_timer.c.obj)
 .text.event_clear
                0x0000000000001edc       0x18 libzephyr.a(nrf_rtc_timer.c.obj)
 .text.rtc_nrf_isr
                0x0000000000001ef4       0x2c libzephyr.a(nrf_rtc_timer.c.obj)
                0x0000000000001ef4                rtc_nrf_isr
 .text.z_clock_driver_init
                0x0000000000001f20       0x7c libzephyr.a(nrf_rtc_timer.c.obj)
                0x0000000000001f20                z_clock_driver_init
 .text.z_clock_set_timeout
                0x0000000000001f9c       0xd8 libzephyr.a(nrf_rtc_timer.c.obj)
                0x0000000000001f9c                z_clock_set_timeout
 .text.z_clock_elapsed
                0x0000000000002074       0x34 libzephyr.a(nrf_rtc_timer.c.obj)
                0x0000000000002074                z_clock_elapsed
 .text.z_timer_cycle_get_32
                0x00000000000020a8       0x34 libzephyr.a(nrf_rtc_timer.c.obj)
                0x00000000000020a8                z_timer_cycle_get_32
 .text._DoInit  0x00000000000020dc       0x60 libzephyr.a(SEGGER_RTT.c.obj)
 .text.SEGGER_RTT_WriteSkipNoLock
                0x000000000000213c       0x98 libzephyr.a(SEGGER_RTT.c.obj)
                0x000000000000213c                SEGGER_RTT_WriteSkipNoLock
 .text.SEGGER_RTT_HasDataUp
                0x00000000000021d4       0x14 libzephyr.a(SEGGER_RTT.c.obj)
                0x00000000000021d4                SEGGER_RTT_HasDataUp
 .text.arch_swap
                0x00000000000021e8       0x38 arch/arch/arm/core/aarch32/libarch__arm__core__aarch32.a(swap.c.obj)
                0x00000000000021e8                arch_swap
 .text.z_arm_pendsv
                0x0000000000002220       0x70 arch/arch/arm/core/aarch32/libarch__arm__core__aarch32.a(swap_helper.S.obj)
                0x0000000000002220                z_arm_pendsv
 .text.z_arm_svc
                0x0000000000002290       0x70 arch/arch/arm/core/aarch32/libarch__arm__core__aarch32.a(swap_helper.S.obj)
                0x0000000000002290                z_arm_svc
 .text.arch_irq_enable
                0x0000000000002300       0x20 arch/arch/arm/core/aarch32/libarch__arm__core__aarch32.a(irq_manage.c.obj)
                0x0000000000002300                arch_irq_enable
 .text.z_arm_irq_priority_set
                0x0000000000002320       0x30 arch/arch/arm/core/aarch32/libarch__arm__core__aarch32.a(irq_manage.c.obj)
                0x0000000000002320                z_arm_irq_priority_set
 .text.arch_user_mode_enter
                0x0000000000002350       0x3c arch/arch/arm/core/aarch32/libarch__arm__core__aarch32.a(thread.c.obj)
                0x0000000000002350                arch_user_mode_enter
 .text.arch_new_thread
                0x000000000000238c       0x64 arch/arch/arm/core/aarch32/libarch__arm__core__aarch32.a(thread.c.obj)
                0x000000000000238c                arch_new_thread
 .text.z_check_thread_stack_fail
                0x00000000000023f0       0x7c arch/arch/arm/core/aarch32/libarch__arm__core__aarch32.a(thread.c.obj)
                0x00000000000023f0                z_check_thread_stack_fail
 .text.arch_switch_to_main_thread
                0x000000000000246c       0x40 arch/arch/arm/core/aarch32/libarch__arm__core__aarch32.a(thread.c.obj)
                0x000000000000246c                arch_switch_to_main_thread
 .text.z_arm_cpu_idle_init
                0x00000000000024ac        0xc arch/arch/arm/core/aarch32/libarch__arm__core__aarch32.a(cpu_idle.S.obj)
                0x00000000000024ac                z_arm_cpu_idle_init
 .text.arch_cpu_idle
                0x00000000000024b8       0x1c arch/arch/arm/core/aarch32/libarch__arm__core__aarch32.a(cpu_idle.S.obj)
                0x00000000000024b8                arch_cpu_idle
 .text.z_arm_fatal_error
                0x00000000000024d4       0xd0 arch/arch/arm/core/aarch32/libarch__arm__core__aarch32.a(fatal.c.obj)
                0x00000000000024d4                z_arm_fatal_error
 .text.z_SysNmiOnReset
                0x00000000000025a4        0x8 arch/arch/arm/core/aarch32/libarch__arm__core__aarch32.a(nmi_on_reset.S.obj)
                0x00000000000025a4                z_SysNmiOnReset
 .text.z_arm_prep_c
                0x00000000000025ac       0x44 arch/arch/arm/core/aarch32/libarch__arm__core__aarch32.a(prep_c.c.obj)
                0x00000000000025ac                z_arm_prep_c
 .text._isr_wrapper
                0x00000000000025f0       0x40 arch/arch/arm/core/aarch32/libarch__arm__core__aarch32.a(isr_wrapper.S.obj)
                0x00000000000025f0                _isr_wrapper
 .text.z_arm_userspace_enter
                0x0000000000002630       0x84 arch/arch/arm/core/aarch32/libarch__arm__core__aarch32.a(userspace.S.obj)
                0x0000000000002630                z_arm_userspace_enter
 .text.z_arm_do_syscall
                0x00000000000026b4       0x94 arch/arch/arm/core/aarch32/libarch__arm__core__aarch32.a(userspace.S.obj)
                0x00000000000026b4                z_arm_do_syscall
 .text.arch_user_string_nlen
                0x0000000000002748       0x24 arch/arch/arm/core/aarch32/libarch__arm__core__aarch32.a(userspace.S.obj)
                0x0000000000002748                arch_user_string_nlen
                0x0000000000002752                z_arm_user_string_nlen_fault_start
                0x0000000000002754                z_arm_user_string_nlen_fault_end
                0x0000000000002764                z_arm_user_string_nlen_fixup
 .text._reset_section
                0x000000000000276c       0x30 arch/arch/arm/core/aarch32/cortex_m/libarch__arm__core__aarch32__cortex_m.a(reset.S.obj)
                0x000000000000276c                z_arm_reset
                0x000000000000276c                __start
 .text.__fault  0x000000000000279c       0x14 arch/arch/arm/core/aarch32/cortex_m/libarch__arm__core__aarch32__cortex_m.a(fault_s.S.obj)
                0x000000000000279c                z_arm_bus_fault
                0x000000000000279c                z_arm_usage_fault
                0x000000000000279c                z_arm_mpu_fault
                0x000000000000279c                z_arm_exc_spurious
                0x000000000000279c                z_arm_debug_monitor
                0x000000000000279c                z_arm_hard_fault
 .text.bus_fault
                0x00000000000027b0      0x1a8 arch/arch/arm/core/aarch32/cortex_m/libarch__arm__core__aarch32__cortex_m.a(fault.c.obj)
 .text.usage_fault.isra.0
                0x0000000000002958      0x144 arch/arch/arm/core/aarch32/cortex_m/libarch__arm__core__aarch32__cortex_m.a(fault.c.obj)
 .text.mem_manage_fault
                0x0000000000002a9c      0x1bc arch/arch/arm/core/aarch32/cortex_m/libarch__arm__core__aarch32__cortex_m.a(fault.c.obj)
 .text.z_arm_fault
                0x0000000000002c58      0x218 arch/arch/arm/core/aarch32/cortex_m/libarch__arm__core__aarch32__cortex_m.a(fault.c.obj)
                0x0000000000002c58                z_arm_fault
 .text.z_arm_fault_init
                0x0000000000002e70       0x10 arch/arch/arm/core/aarch32/cortex_m/libarch__arm__core__aarch32__cortex_m.a(fault.c.obj)
                0x0000000000002e70                z_arm_fault_init
 .text._HandlerModeExit
                0x0000000000002e80       0x1c arch/arch/arm/core/aarch32/cortex_m/libarch__arm__core__aarch32__cortex_m.a(exc_exit.S.obj)
                0x0000000000002e80                z_arm_exc_exit
                0x0000000000002e80                z_arm_int_exit
 .text.z_arm_interrupt_init
                0x0000000000002e9c       0x18 arch/arch/arm/core/aarch32/cortex_m/libarch__arm__core__aarch32__cortex_m.a(irq_init.c.obj)
                0x0000000000002e9c                z_arm_interrupt_init
 .text.z_impl_k_thread_abort
                0x0000000000002eb4       0x4c arch/arch/arm/core/aarch32/cortex_m/libarch__arm__core__aarch32__cortex_m.a(thread_abort.c.obj)
                0x0000000000002eb4                z_impl_k_thread_abort
 .text.z_arm_configure_static_mpu_regions
                0x0000000000002f00       0x38 arch/arch/arm/core/aarch32/cortex_m/mpu/libarch__arm__core__aarch32__cortex_m__mpu.a(arm_core_mpu.c.obj)
                0x0000000000002f00                z_arm_configure_static_mpu_regions
 .text.z_arm_configure_dynamic_mpu_regions
                0x0000000000002f38       0xa4 arch/arch/arm/core/aarch32/cortex_m/mpu/libarch__arm__core__aarch32__cortex_m__mpu.a(arm_core_mpu.c.obj)
                0x0000000000002f38                z_arm_configure_dynamic_mpu_regions
 .text.arch_mem_domain_thread_add
                0x0000000000002fdc       0x14 arch/arch/arm/core/aarch32/cortex_m/mpu/libarch__arm__core__aarch32__cortex_m__mpu.a(arm_core_mpu.c.obj)
                0x0000000000002fdc                arch_mem_domain_thread_add
 .text.is_enabled_region
                0x0000000000002ff0       0x28 arch/arch/arm/core/aarch32/cortex_m/mpu/libarch__arm__core__aarch32__cortex_m__mpu.a(arm_mpu.c.obj)
 .text.mpu_configure_region
                0x0000000000003018       0x98 arch/arch/arm/core/aarch32/cortex_m/mpu/libarch__arm__core__aarch32__cortex_m__mpu.a(arm_mpu.c.obj)
 .text.arm_core_mpu_enable
                0x00000000000030b0       0x14 arch/arch/arm/core/aarch32/cortex_m/mpu/libarch__arm__core__aarch32__cortex_m__mpu.a(arm_mpu.c.obj)
                0x00000000000030b0                arm_core_mpu_enable
 .text.arm_core_mpu_disable
                0x00000000000030c4       0x10 arch/arch/arm/core/aarch32/cortex_m/mpu/libarch__arm__core__aarch32__cortex_m__mpu.a(arm_mpu.c.obj)
                0x00000000000030c4                arm_core_mpu_disable
 .text.arm_mpu_init
                0x00000000000030d4       0x64 arch/arch/arm/core/aarch32/cortex_m/mpu/libarch__arm__core__aarch32__cortex_m__mpu.a(arm_mpu.c.obj)
 .text.arm_core_mpu_get_max_available_dyn_regions
                0x0000000000003138       0x10 arch/arch/arm/core/aarch32/cortex_m/mpu/libarch__arm__core__aarch32__cortex_m__mpu.a(arm_mpu.c.obj)
                0x0000000000003138                arm_core_mpu_get_max_available_dyn_regions
 .text.arm_core_mpu_buffer_validate
                0x0000000000003148       0xa8 arch/arch/arm/core/aarch32/cortex_m/mpu/libarch__arm__core__aarch32__cortex_m__mpu.a(arm_mpu.c.obj)
                0x0000000000003148                arm_core_mpu_buffer_validate
 .text.arm_core_mpu_configure_static_mpu_regions
                0x00000000000031f0       0x80 arch/arch/arm/core/aarch32/cortex_m/mpu/libarch__arm__core__aarch32__cortex_m__mpu.a(arm_mpu.c.obj)
                0x00000000000031f0                arm_core_mpu_configure_static_mpu_regions
 .text.arm_core_mpu_configure_dynamic_mpu_regions
                0x0000000000003270       0x4c arch/arch/arm/core/aarch32/cortex_m/mpu/libarch__arm__core__aarch32__cortex_m__mpu.a(arm_mpu.c.obj)
                0x0000000000003270                arm_core_mpu_configure_dynamic_mpu_regions
 .text.__stdout_hook_install
                0x00000000000032bc        0xc lib/libc/minimal/liblib__libc__minimal.a(stdout_console.c.obj)
                0x00000000000032bc                __stdout_hook_install
 .text.z_impl_zephyr_fputc
                0x00000000000032c8       0x14 lib/libc/minimal/liblib__libc__minimal.a(stdout_console.c.obj)
                0x00000000000032c8                z_impl_zephyr_fputc
 .text.z_mrsh_zephyr_fputc
                0x00000000000032dc       0x10 lib/libc/minimal/liblib__libc__minimal.a(stdout_console.c.obj)
                0x00000000000032dc                z_mrsh_zephyr_fputc
 .text.z_impl_zephyr_fwrite
                0x00000000000032ec       0x48 lib/libc/minimal/liblib__libc__minimal.a(stdout_console.c.obj)
                0x00000000000032ec                z_impl_zephyr_fwrite
 .text.z_mrsh_zephyr_fwrite
                0x0000000000003334       0xd8 lib/libc/minimal/liblib__libc__minimal.a(stdout_console.c.obj)
                0x0000000000003334                z_mrsh_zephyr_fwrite
 .text.nordicsemi_nrf52_init
                0x000000000000340c       0x30 soc/arm/nordic_nrf/nrf52/libsoc__arm__nordic_nrf__nrf52.a(soc.c.obj)
 .text.arch_busy_wait
                0x000000000000343c       0x14 soc/arm/nordic_nrf/nrf52/libsoc__arm__nordic_nrf__nrf52.a(soc.c.obj)
                0x000000000000343c                arch_busy_wait
 .text.gpio_nrfx_init
                0x0000000000003450       0x30 drivers/gpio/libdrivers__gpio.a(gpio_nrfx.c.obj)
 .text.gpio_nrfx_config
                0x0000000000003480       0xc8 drivers/gpio/libdrivers__gpio.a(gpio_nrfx.c.obj)
 .text.nrf_gpio_cfg_sense_set
                0x0000000000003548       0x28 drivers/gpio/libdrivers__gpio.a(gpio_nrfx.c.obj)
 .text.gpiote_pin_int_cfg
                0x0000000000003570      0x138 drivers/gpio/libdrivers__gpio.a(gpio_nrfx.c.obj)
 .text.gpio_nrfx_pin_interrupt_configure
                0x00000000000036a8       0x9c drivers/gpio/libdrivers__gpio.a(gpio_nrfx.c.obj)
 .text.gpiote_event_handler
                0x0000000000003744       0xbc drivers/gpio/libdrivers__gpio.a(gpio_nrfx.c.obj)
 .text.z_mrsh_gpio_config
                0x0000000000003800       0xbc drivers/gpio/libdrivers__gpio.a(gpio_handlers.c.obj)
                0x0000000000003800                z_mrsh_gpio_config
 .text.z_mrsh_gpio_port_get_raw
                0x00000000000038bc      0x114 drivers/gpio/libdrivers__gpio.a(gpio_handlers.c.obj)
                0x00000000000038bc                z_mrsh_gpio_port_get_raw
 .text.z_mrsh_gpio_port_set_masked_raw
                0x00000000000039d0       0xbc drivers/gpio/libdrivers__gpio.a(gpio_handlers.c.obj)
                0x00000000000039d0                z_mrsh_gpio_port_set_masked_raw
 .text.z_mrsh_gpio_port_set_bits_raw
                0x0000000000003a8c       0xb4 drivers/gpio/libdrivers__gpio.a(gpio_handlers.c.obj)
                0x0000000000003a8c                z_mrsh_gpio_port_set_bits_raw
 .text.z_mrsh_gpio_port_clear_bits_raw
                0x0000000000003b40       0xb4 drivers/gpio/libdrivers__gpio.a(gpio_handlers.c.obj)
                0x0000000000003b40                z_mrsh_gpio_port_clear_bits_raw
 .text.z_mrsh_gpio_port_toggle_bits
                0x0000000000003bf4       0xb4 drivers/gpio/libdrivers__gpio.a(gpio_handlers.c.obj)
                0x0000000000003bf4                z_mrsh_gpio_port_toggle_bits
 .text.z_mrsh_gpio_pin_interrupt_configure
                0x0000000000003ca8       0xdc drivers/gpio/libdrivers__gpio.a(gpio_handlers.c.obj)
                0x0000000000003ca8                z_mrsh_gpio_pin_interrupt_configure
 .text.z_mrsh_gpio_enable_callback
                0x0000000000003d84       0xb4 drivers/gpio/libdrivers__gpio.a(gpio_handlers.c.obj)
                0x0000000000003d84                z_mrsh_gpio_enable_callback
 .text.z_mrsh_gpio_disable_callback
                0x0000000000003e38       0xb4 drivers/gpio/libdrivers__gpio.a(gpio_handlers.c.obj)
                0x0000000000003e38                z_mrsh_gpio_disable_callback
 .text.z_mrsh_gpio_get_pending_int
                0x0000000000003eec       0xb0 drivers/gpio/libdrivers__gpio.a(gpio_handlers.c.obj)
                0x0000000000003eec                z_mrsh_gpio_get_pending_int
 .text.uart_nrfx_err_check
                0x0000000000003f9c       0x10 drivers/serial/libdrivers__serial.a(uart_nrfx_uart.c.obj)
 .text.uart_nrfx_configure
                0x0000000000003fac      0x174 drivers/serial/libdrivers__serial.a(uart_nrfx_uart.c.obj)
 .text.uart_nrfx_poll_in
                0x0000000000004120       0x2c drivers/serial/libdrivers__serial.a(uart_nrfx_uart.c.obj)
 .text.uart_nrfx_poll_out
                0x000000000000414c       0x88 drivers/serial/libdrivers__serial.a(uart_nrfx_uart.c.obj)
 .text.uart_nrfx_init
                0x00000000000041d4       0x6c drivers/serial/libdrivers__serial.a(uart_nrfx_uart.c.obj)
 .text.uarte_nrfx_configure
                0x0000000000004240      0x168 drivers/serial/libdrivers__serial.a(uart_nrfx_uarte.c.obj)
 .text.uarte_1_init
                0x00000000000043a8       0x58 drivers/serial/libdrivers__serial.a(uart_nrfx_uarte.c.obj)
 .text.z_mrsh_uart_err_check
                0x0000000000004400       0xb0 drivers/serial/libdrivers__serial.a(uart_handlers.c.obj)
                0x0000000000004400                z_mrsh_uart_err_check
 .text.z_mrsh_uart_poll_in
                0x00000000000044b0      0x114 drivers/serial/libdrivers__serial.a(uart_handlers.c.obj)
                0x00000000000044b0                z_mrsh_uart_poll_in
 .text.z_mrsh_uart_poll_out
                0x00000000000045c4       0xb8 drivers/serial/libdrivers__serial.a(uart_handlers.c.obj)
                0x00000000000045c4                z_mrsh_uart_poll_out
 .text.z_mrsh_uart_config_get
                0x000000000000467c      0x120 drivers/serial/libdrivers__serial.a(uart_handlers.c.obj)
                0x000000000000467c                z_mrsh_uart_config_get
 .text.z_mrsh_uart_configure
                0x000000000000479c      0x120 drivers/serial/libdrivers__serial.a(uart_handlers.c.obj)
                0x000000000000479c                z_mrsh_uart_configure
 .text.nrf52_errata_36
                0x00000000000048bc       0x3c ../modules/nordic/lib..__modules__hal__nordic.a(system_nrf52840.c.obj)
 .text.nrf52_errata_98
                0x00000000000048f8       0x28 ../modules/nordic/lib..__modules__hal__nordic.a(system_nrf52840.c.obj)
 .text.SystemInit
                0x0000000000004920      0x1b8 ../modules/nordic/lib..__modules__hal__nordic.a(system_nrf52840.c.obj)
                0x0000000000004920                SystemInit
 .text.z_sys_init_run_level
                0x0000000000004ad8       0x34 kernel/libkernel.a(device.c.obj)
                0x0000000000004ad8                z_sys_init_run_level
 .text.z_impl_device_get_binding
                0x0000000000004b0c       0x48 kernel/libkernel.a(device.c.obj)
                0x0000000000004b0c                z_impl_device_get_binding
 .text.z_mrsh_device_get_binding
                0x0000000000004b54       0x2c kernel/libkernel.a(device.c.obj)
                0x0000000000004b54                z_mrsh_device_get_binding
 .text.z_mrsh_z_errno
                0x0000000000004b80       0x10 kernel/libkernel.a(errno.c.obj)
                0x0000000000004b80                z_mrsh_z_errno
 .text.k_sys_fatal_error_handler
                0x0000000000004b90       0x40 kernel/libkernel.a(fatal.c.obj)
                0x0000000000004b90                k_sys_fatal_error_handler
 .text.z_fatal_error
                0x0000000000004bd0      0x128 kernel/libkernel.a(fatal.c.obj)
                0x0000000000004bd0                z_fatal_error
 .text.idle     0x0000000000004cf8       0x34 kernel/libkernel.a(idle.c.obj)
                0x0000000000004cf8                idle
 .text.z_bss_zero
                0x0000000000004d2c       0x14 kernel/libkernel.a(init.c.obj)
                0x0000000000004d2c                z_bss_zero
 .text.z_data_copy
                0x0000000000004d40       0x4c kernel/libkernel.a(init.c.obj)
                0x0000000000004d40                z_data_copy
 .text.bg_thread_main
                0x0000000000004d8c       0x48 kernel/libkernel.a(init.c.obj)
 .text.z_cstart
                0x0000000000004dd4      0x110 kernel/libkernel.a(init.c.obj)
                0x0000000000004dd4                z_cstart
 .text.init_mem_slab_module
                0x0000000000004ee4       0x48 kernel/libkernel.a(mem_slab.c.obj)
 .text.k_mem_slab_alloc
                0x0000000000004f2c       0x64 kernel/libkernel.a(mem_slab.c.obj)
                0x0000000000004f2c                k_mem_slab_alloc
 .text.k_mem_slab_free
                0x0000000000004f90       0x54 kernel/libkernel.a(mem_slab.c.obj)
                0x0000000000004f90                k_mem_slab_free
 .text.z_mrsh_k_mutex_init
                0x0000000000004fe4       0x6c kernel/libkernel.a(mutex.c.obj)
                0x0000000000004fe4                z_mrsh_k_mutex_init
 .text.z_impl_k_mutex_lock
                0x0000000000005050       0xf0 kernel/libkernel.a(mutex.c.obj)
                0x0000000000005050                z_impl_k_mutex_lock
 .text.z_mrsh_k_mutex_lock
                0x0000000000005140       0x74 kernel/libkernel.a(mutex.c.obj)
                0x0000000000005140                z_mrsh_k_mutex_lock
 .text.z_impl_k_mutex_unlock
                0x00000000000051b4       0x90 kernel/libkernel.a(mutex.c.obj)
                0x00000000000051b4                z_impl_k_mutex_unlock
 .text.z_mrsh_k_mutex_unlock
                0x0000000000005244       0x6c kernel/libkernel.a(mutex.c.obj)
                0x0000000000005244                z_mrsh_k_mutex_unlock
 .text.z_mrsh_k_queue_init
                0x00000000000052b0       0x70 kernel/libkernel.a(queue.c.obj)
                0x00000000000052b0                z_mrsh_k_queue_init
 .text.z_mrsh_k_queue_cancel_wait
                0x0000000000005320       0x6c kernel/libkernel.a(queue.c.obj)
                0x0000000000005320                z_mrsh_k_queue_cancel_wait
 .text.z_mrsh_k_queue_alloc_append
                0x000000000000538c       0x70 kernel/libkernel.a(queue.c.obj)
                0x000000000000538c                z_mrsh_k_queue_alloc_append
 .text.z_mrsh_k_queue_alloc_prepend
                0x00000000000053fc       0x70 kernel/libkernel.a(queue.c.obj)
                0x00000000000053fc                z_mrsh_k_queue_alloc_prepend
 .text.z_impl_k_queue_get
                0x000000000000546c       0x68 kernel/libkernel.a(queue.c.obj)
                0x000000000000546c                z_impl_k_queue_get
 .text.z_mrsh_k_queue_get
                0x00000000000054d4       0x74 kernel/libkernel.a(queue.c.obj)
                0x00000000000054d4                z_mrsh_k_queue_get
 .text.z_mrsh_k_queue_is_empty
                0x0000000000005548       0x6c kernel/libkernel.a(queue.c.obj)
                0x0000000000005548                z_mrsh_k_queue_is_empty
 .text.z_mrsh_k_queue_peek_head
                0x00000000000055b4       0x6c kernel/libkernel.a(queue.c.obj)
                0x00000000000055b4                z_mrsh_k_queue_peek_head
 .text.z_mrsh_k_queue_peek_tail
                0x0000000000005620       0x6c kernel/libkernel.a(queue.c.obj)
                0x0000000000005620                z_mrsh_k_queue_peek_tail
 .text.z_reset_time_slice
                0x000000000000568c       0x2c kernel/libkernel.a(sched.c.obj)
                0x000000000000568c                z_reset_time_slice
 .text.k_sched_time_slice_set
                0x00000000000056b8       0x58 kernel/libkernel.a(sched.c.obj)
                0x00000000000056b8                k_sched_time_slice_set
 .text.k_sched_lock
                0x0000000000005710       0x28 kernel/libkernel.a(sched.c.obj)
                0x0000000000005710                k_sched_lock
 .text.z_priq_dumb_remove
                0x0000000000005738       0x2c kernel/libkernel.a(sched.c.obj)
                0x0000000000005738                z_priq_dumb_remove
 .text.update_cache
                0x0000000000005764       0x48 kernel/libkernel.a(sched.c.obj)
 .text.k_sched_unlock
                0x00000000000057ac       0x38 kernel/libkernel.a(sched.c.obj)
                0x00000000000057ac                k_sched_unlock
 .text.ready_thread
                0x00000000000057e4       0x68 kernel/libkernel.a(sched.c.obj)
 .text.z_sched_start
                0x000000000000584c       0x3c kernel/libkernel.a(sched.c.obj)
                0x000000000000584c                z_sched_start
 .text.z_impl_k_thread_resume
                0x0000000000005888       0x30 kernel/libkernel.a(sched.c.obj)
                0x0000000000005888                z_impl_k_thread_resume
 .text.z_mrsh_k_thread_resume
                0x00000000000058b8       0x6c kernel/libkernel.a(sched.c.obj)
                0x00000000000058b8                z_mrsh_k_thread_resume
 .text.z_move_thread_to_end_of_prio_q
                0x0000000000005924       0x8c kernel/libkernel.a(sched.c.obj)
                0x0000000000005924                z_move_thread_to_end_of_prio_q
 .text.z_time_slice
                0x00000000000059b0       0x6c kernel/libkernel.a(sched.c.obj)
                0x00000000000059b0                z_time_slice
 .text.z_impl_k_thread_suspend
                0x0000000000005a1c       0x68 kernel/libkernel.a(sched.c.obj)
                0x0000000000005a1c                z_impl_k_thread_suspend
 .text.z_mrsh_k_thread_suspend
                0x0000000000005a84       0x6c kernel/libkernel.a(sched.c.obj)
                0x0000000000005a84                z_mrsh_k_thread_suspend
 .text.z_thread_single_abort
                0x0000000000005af0       0xcc kernel/libkernel.a(sched.c.obj)
                0x0000000000005af0                z_thread_single_abort
 .text.unready_thread
                0x0000000000005bbc       0x34 kernel/libkernel.a(sched.c.obj)
 .text.z_tick_sleep.part.0
                0x0000000000005bf0       0x5c kernel/libkernel.a(sched.c.obj)
 .text.pend     0x0000000000005c4c       0x4c kernel/libkernel.a(sched.c.obj)
 .text.z_pend_curr
                0x0000000000005c98       0x28 kernel/libkernel.a(sched.c.obj)
                0x0000000000005c98                z_pend_curr
 .text.z_set_prio
                0x0000000000005cc0       0x88 kernel/libkernel.a(sched.c.obj)
                0x0000000000005cc0                z_set_prio
 .text.z_thread_priority_set
                0x0000000000005d48       0x20 kernel/libkernel.a(sched.c.obj)
                0x0000000000005d48                z_thread_priority_set
 .text.z_sched_init
                0x0000000000005d68       0x18 kernel/libkernel.a(sched.c.obj)
                0x0000000000005d68                z_sched_init
 .text.z_mrsh_k_thread_priority_get
                0x0000000000005d80       0x64 kernel/libkernel.a(sched.c.obj)
                0x0000000000005d80                z_mrsh_k_thread_priority_get
 .text.z_mrsh_k_thread_priority_set
                0x0000000000005de4       0xfc kernel/libkernel.a(sched.c.obj)
                0x0000000000005de4                z_mrsh_k_thread_priority_set
 .text.z_impl_k_yield
                0x0000000000005ee0       0x9c kernel/libkernel.a(sched.c.obj)
                0x0000000000005ee0                z_impl_k_yield
 .text.z_mrsh_k_yield
                0x0000000000005f7c       0x18 kernel/libkernel.a(sched.c.obj)
                0x0000000000005f7c                z_mrsh_k_yield
 .text.z_impl_k_sleep
                0x0000000000005f94       0x40 kernel/libkernel.a(sched.c.obj)
                0x0000000000005f94                z_impl_k_sleep
 .text.z_mrsh_k_sleep
                0x0000000000005fd4       0x10 kernel/libkernel.a(sched.c.obj)
                0x0000000000005fd4                z_mrsh_k_sleep
 .text.z_impl_k_usleep
                0x0000000000005fe4       0x40 kernel/libkernel.a(sched.c.obj)
                0x0000000000005fe4                z_impl_k_usleep
 .text.z_mrsh_k_usleep
                0x0000000000006024       0x10 kernel/libkernel.a(sched.c.obj)
                0x0000000000006024                z_mrsh_k_usleep
 .text.z_mrsh_k_wakeup
                0x0000000000006034       0x6c kernel/libkernel.a(sched.c.obj)
                0x0000000000006034                z_mrsh_k_wakeup
 .text.z_impl_k_current_get
                0x00000000000060a0        0xc kernel/libkernel.a(sched.c.obj)
                0x00000000000060a0                z_impl_k_current_get
 .text.z_mrsh_k_current_get
                0x00000000000060ac       0x10 kernel/libkernel.a(sched.c.obj)
                0x00000000000060ac                z_mrsh_k_current_get
 .text.z_impl_k_is_preempt_thread
                0x00000000000060bc       0x20 kernel/libkernel.a(sched.c.obj)
                0x00000000000060bc                z_impl_k_is_preempt_thread
 .text.z_mrsh_k_is_preempt_thread
                0x00000000000060dc       0x10 kernel/libkernel.a(sched.c.obj)
                0x00000000000060dc                z_mrsh_k_is_preempt_thread
 .text.z_impl_k_thread_join
                0x00000000000060ec       0x88 kernel/libkernel.a(sched.c.obj)
                0x00000000000060ec                z_impl_k_thread_join
 .text.z_mrsh_k_thread_join
                0x0000000000006174       0x2c kernel/libkernel.a(sched.c.obj)
                0x0000000000006174                z_mrsh_k_thread_join
 .text.z_mrsh_k_thread_abort
                0x00000000000061a0       0x6c kernel/libkernel.a(sched.c.obj)
                0x00000000000061a0                z_mrsh_k_thread_abort
 .text.z_vrfy_k_sem_init
                0x000000000000620c       0x6c kernel/libkernel.a(sem.c.obj)
                0x000000000000620c                z_vrfy_k_sem_init
 .text.z_mrsh_k_sem_init
                0x0000000000006278       0x14 kernel/libkernel.a(sem.c.obj)
                0x0000000000006278                z_mrsh_k_sem_init
 .text.z_impl_k_sem_give
                0x000000000000628c       0x44 kernel/libkernel.a(sem.c.obj)
                0x000000000000628c                z_impl_k_sem_give
 .text.z_mrsh_k_sem_give
                0x00000000000062d0       0x6c kernel/libkernel.a(sem.c.obj)
                0x00000000000062d0                z_mrsh_k_sem_give
 .text.z_impl_k_sem_take
                0x000000000000633c       0x54 kernel/libkernel.a(sem.c.obj)
                0x000000000000633c                z_impl_k_sem_take
 .text.z_mrsh_k_sem_take
                0x0000000000006390       0x74 kernel/libkernel.a(sem.c.obj)
                0x0000000000006390                z_mrsh_k_sem_take
 .text.z_mrsh_k_sem_reset
                0x0000000000006404       0x64 kernel/libkernel.a(sem.c.obj)
                0x0000000000006404                z_mrsh_k_sem_reset
 .text.z_mrsh_k_sem_count_get
                0x0000000000006468       0x64 kernel/libkernel.a(sem.c.obj)
                0x0000000000006468                z_mrsh_k_sem_count_get
 .text.schedule_new_thread
                0x00000000000064cc       0x20 kernel/libkernel.a(thread.c.obj)
 .text.z_mrsh_k_busy_wait
                0x00000000000064ec       0x18 kernel/libkernel.a(thread.c.obj)
                0x00000000000064ec                z_mrsh_k_busy_wait
 .text.z_mrsh_k_thread_name_set
                0x0000000000006504       0x14 kernel/libkernel.a(thread.c.obj)
                0x0000000000006504                z_mrsh_k_thread_name_set
 .text.z_mrsh_k_thread_name_copy
                0x0000000000006518       0x14 kernel/libkernel.a(thread.c.obj)
                0x0000000000006518                z_mrsh_k_thread_name_copy
 .text.z_mrsh_k_thread_start
                0x000000000000652c       0x70 kernel/libkernel.a(thread.c.obj)
                0x000000000000652c                z_mrsh_k_thread_start
 .text.z_setup_new_thread
                0x000000000000659c       0x90 kernel/libkernel.a(thread.c.obj)
                0x000000000000659c                z_setup_new_thread
 .text.z_vrfy_k_thread_create
                0x000000000000662c      0x1f8 kernel/libkernel.a(thread.c.obj)
                0x000000000000662c                z_vrfy_k_thread_create
 .text.z_mrsh_k_thread_create
                0x0000000000006824       0xb4 kernel/libkernel.a(thread.c.obj)
                0x0000000000006824                z_mrsh_k_thread_create
 .text.z_init_static_threads
                0x00000000000068d8       0xd0 kernel/libkernel.a(thread.c.obj)
                0x00000000000068d8                z_init_static_threads
 .text.z_mrsh_k_float_disable
                0x00000000000069a8       0x68 kernel/libkernel.a(thread.c.obj)
                0x00000000000069a8                z_mrsh_k_float_disable
 .text.z_mrsh_k_thread_timeout_remaining_ticks
                0x0000000000006a10       0x6c kernel/libkernel.a(thread.c.obj)
                0x0000000000006a10                z_mrsh_k_thread_timeout_remaining_ticks
 .text.z_mrsh_k_thread_timeout_expires_ticks
                0x0000000000006a7c       0x6c kernel/libkernel.a(thread.c.obj)
                0x0000000000006a7c                z_mrsh_k_thread_timeout_expires_ticks
 .text.elapsed  0x0000000000006ae8       0x14 kernel/libkernel.a(timeout.c.obj)
 .text.remove_timeout
                0x0000000000006afc       0x28 kernel/libkernel.a(timeout.c.obj)
 .text.next_timeout
                0x0000000000006b24       0x38 kernel/libkernel.a(timeout.c.obj)
 .text.timeout_rem
                0x0000000000006b5c       0x4c kernel/libkernel.a(timeout.c.obj)
 .text.z_add_timeout
                0x0000000000006ba8       0xf4 kernel/libkernel.a(timeout.c.obj)
                0x0000000000006ba8                z_add_timeout
 .text.z_timeout_expires
                0x0000000000006c9c       0x30 kernel/libkernel.a(timeout.c.obj)
                0x0000000000006c9c                z_timeout_expires
 .text.z_clock_announce
                0x0000000000006ccc       0xa8 kernel/libkernel.a(timeout.c.obj)
                0x0000000000006ccc                z_clock_announce
 .text.z_tick_get
                0x0000000000006d74       0x34 kernel/libkernel.a(timeout.c.obj)
                0x0000000000006d74                z_tick_get
 .text.z_mrsh_k_uptime_ticks
                0x0000000000006da8       0x98 kernel/libkernel.a(timeout.c.obj)
                0x0000000000006da8                z_mrsh_k_uptime_ticks
 .text.z_timer_expiration_handler
                0x0000000000006e40       0x4c kernel/libkernel.a(timer.c.obj)
                0x0000000000006e40                z_timer_expiration_handler
 .text.z_impl_k_timer_start
                0x0000000000006e8c       0x9c kernel/libkernel.a(timer.c.obj)
                0x0000000000006e8c                z_impl_k_timer_start
 .text.z_mrsh_k_timer_start
                0x0000000000006f28       0x84 kernel/libkernel.a(timer.c.obj)
                0x0000000000006f28                z_mrsh_k_timer_start
 .text.z_mrsh_k_timer_stop
                0x0000000000006fac       0x6c kernel/libkernel.a(timer.c.obj)
                0x0000000000006fac                z_mrsh_k_timer_stop
 .text.z_mrsh_k_timer_status_get
                0x0000000000007018       0x68 kernel/libkernel.a(timer.c.obj)
                0x0000000000007018                z_mrsh_k_timer_status_get
 .text.z_impl_k_timer_status_sync
                0x0000000000007080       0x58 kernel/libkernel.a(timer.c.obj)
                0x0000000000007080                z_impl_k_timer_status_sync
 .text.z_mrsh_k_timer_status_sync
                0x00000000000070d8       0x68 kernel/libkernel.a(timer.c.obj)
                0x00000000000070d8                z_mrsh_k_timer_status_sync
 .text.z_mrsh_k_timer_remaining_ticks
                0x0000000000007140       0x68 kernel/libkernel.a(timer.c.obj)
                0x0000000000007140                z_mrsh_k_timer_remaining_ticks
 .text.z_mrsh_k_timer_expires_ticks
                0x00000000000071a8       0x68 kernel/libkernel.a(timer.c.obj)
                0x00000000000071a8                z_mrsh_k_timer_expires_ticks
 .text.z_mrsh_k_timer_user_data_get
                0x0000000000007210       0x64 kernel/libkernel.a(timer.c.obj)
                0x0000000000007210                z_mrsh_k_timer_user_data_get
 .text.z_mrsh_k_timer_user_data_set
                0x0000000000007274       0x64 kernel/libkernel.a(timer.c.obj)
                0x0000000000007274                z_mrsh_k_timer_user_data_set
 .text.z_mrsh_k_futex_wake
                0x00000000000072d8       0x90 kernel/libkernel.a(futex.c.obj)
                0x00000000000072d8                z_mrsh_k_futex_wake
 .text.z_mrsh_k_futex_wait
                0x0000000000007368       0x98 kernel/libkernel.a(futex.c.obj)
                0x0000000000007368                z_mrsh_k_futex_wait
 .text.init_mem_domain_module
                0x0000000000007400       0x14 kernel/libkernel.a(mem_domain.c.obj)
 .text.app_shmem_bss_zero
                0x0000000000007414       0x24 kernel/libkernel.a(userspace.c.obj)
 .text.handler_no_syscall
                0x0000000000007438       0x44 kernel/libkernel.a(userspace.c.obj)
                0x0000000000007438                z_mrsh_k_msgq_get
                0x0000000000007438                z_mrsh_k_stack_push
                0x0000000000007438                z_mrsh_peci_enable
                0x0000000000007438                z_mrsh_flash_get_write_block_size
                0x0000000000007438                z_mrsh_sensor_attr_set
                0x0000000000007438                z_mrsh_k_thread_custom_data_get
                0x0000000000007438                z_mrsh_led_on
                0x0000000000007438                z_mrsh_k_poll_signal_raise
                0x0000000000007438                z_mrsh_net_eth_get_ptp_clock_by_index
                0x0000000000007438                z_mrsh_counter_get_guard_period
                0x0000000000007438                z_mrsh_adc_read_async
                0x0000000000007438                z_mrsh_clock_gettime
                0x0000000000007438                z_mrsh_counter_set_channel_alarm
                0x0000000000007438                z_mrsh_espi_receive_oob
                0x0000000000007438                z_mrsh_led_off
                0x0000000000007438                z_mrsh_espi_read_flash
                0x0000000000007438                z_mrsh_k_pipe_get
                0x0000000000007438                z_mrsh_k_msgq_peek
                0x0000000000007438                z_mrsh_net_if_ipv4_set_netmask_by_index
                0x0000000000007438                z_mrsh_uart_irq_is_pending
                0x0000000000007438                z_mrsh_uart_tx
                0x0000000000007438                z_mrsh_uart_mux_find
                0x0000000000007438                z_mrsh_k_msgq_num_free_get
                0x0000000000007438                z_mrsh_counter_start
                0x0000000000007438                z_mrsh_net_if_ipv4_addr_rm_by_index
                0x0000000000007438                z_mrsh_sensor_sample_fetch_chan
                0x0000000000007438                z_mrsh_k_pipe_read_avail
                0x0000000000007438                z_mrsh_zsock_sendmsg
                0x0000000000007438                z_mrsh_i2s_trigger
                0x0000000000007438                z_mrsh_espi_write_flash
                0x0000000000007438                z_mrsh_counter_get_num_of_channels
                0x0000000000007438                z_mrsh_eeprom_get_size
                0x0000000000007438                z_mrsh_atomic_set
                0x0000000000007438                z_mrsh_ipm_set_enabled
                0x0000000000007438                z_mrsh_uart_rx_enable
                0x0000000000007438                z_mrsh_net_addr_ntop
                0x0000000000007438                z_mrsh_uart_irq_err_enable
                0x0000000000007438                z_mrsh_zsock_getsockname
                0x0000000000007438                z_mrsh_zsock_listen
                0x0000000000007438                z_mrsh_pwm_get_cycles_per_sec
                0x0000000000007438                z_mrsh_k_msgq_alloc_init
                0x0000000000007438                z_mrsh_can_recover
                0x0000000000007438                z_mrsh_dma_start
                0x0000000000007438                z_mrsh_net_if_ipv6_addr_lookup_by_index
                0x0000000000007438                z_mrsh_ps2_config
                0x0000000000007438                z_mrsh_wdt_disable
                0x0000000000007438                z_mrsh_can_send
                0x0000000000007438                z_mrsh_zsock_sendto
                0x0000000000007438                z_mrsh_counter_get_frequency
                0x0000000000007438                z_mrsh_zsock_gethostname
                0x0000000000007438                z_mrsh_k_poll_signal_check
                0x0000000000007438                z_mrsh_i2c_configure
                0x0000000000007438                z_mrsh_ps2_enable_callback
                0x0000000000007438                z_mrsh_espi_write_lpc_request
                0x0000000000007438                z_mrsh_uart_irq_tx_enable
                0x0000000000007438                z_mrsh_k_stack_alloc_init
                0x0000000000007438                z_mrsh_uart_irq_rx_enable
                0x0000000000007438                z_mrsh_zsock_inet_pton
                0x0000000000007438                z_mrsh_ps2_read
                0x0000000000007438                z_mrsh_ipm_max_data_size_get
                0x0000000000007438                z_mrsh_ps2_write
                0x0000000000007438                z_mrsh_dac_write_value
                0x0000000000007438                z_mrsh_espi_send_oob
                0x0000000000007438                z_mrsh_counter_get_max_top_value
                0x0000000000007438                z_mrsh_espi_send_vwire
                0x0000000000007438                z_mrsh_net_if_ipv4_addr_lookup_by_index
                0x0000000000007438                z_mrsh_uart_line_ctrl_get
                0x0000000000007438                z_mrsh_k_thread_stack_space_get
                0x0000000000007438                z_mrsh_counter_stop
                0x0000000000007438                z_mrsh_uart_tx_abort
                0x0000000000007438                z_mrsh_wdt_setup
                0x0000000000007438                z_mrsh_i2c_recover_bus
                0x0000000000007438                z_mrsh_ps2_disable_callback
                0x0000000000007438                z_mrsh_net_if_ipv6_addr_add_by_index
                0x0000000000007438                z_mrsh_k_pipe_alloc_init
                0x0000000000007438                z_mrsh_i2c_transfer
                0x0000000000007438                z_mrsh_flash_write_protection_set
                0x0000000000007438                z_mrsh_z_zephyr_read_stdin
                0x0000000000007438                z_mrsh_net_if_ipv6_addr_rm_by_index
                0x0000000000007438                z_mrsh_atomic_or
                0x0000000000007438                z_mrsh_dac_channel_setup
                0x0000000000007438                z_mrsh_espi_read_request
                0x0000000000007438                z_mrsh_spi_release
                0x0000000000007438                z_mrsh_zsock_recvfrom
                0x0000000000007438                z_mrsh_zsock_bind
                0x0000000000007438                z_mrsh_flash_get_page_info_by_offs
                0x0000000000007438                z_mrsh_led_blink
                0x0000000000007438                z_mrsh_can_detach
                0x0000000000007438                z_mrsh_maxim_ds3231_get_syncpoint
                0x0000000000007438                z_mrsh_counter_get_value
                0x0000000000007438                z_mrsh_i2c_slave_driver_unregister
                0x0000000000007438                z_mrsh_espi_config
                0x0000000000007438                z_mrsh_entropy_get_entropy
                0x0000000000007438                z_mrsh_uart_line_ctrl_set
                0x0000000000007438                z_mrsh_espi_flash_erase
                0x0000000000007438                z_mrsh_ipm_send
                0x0000000000007438                z_mrsh_can_configure
                0x0000000000007438                z_mrsh_k_poll_signal_reset
                0x0000000000007438                z_mrsh_zsock_accept
                0x0000000000007438                z_mrsh_espi_read_lpc_request
                0x0000000000007438                z_mrsh_k_msgq_get_attrs
                0x0000000000007438                z_mrsh_zsock_fcntl
                0x0000000000007438                z_mrsh_net_if_ipv4_addr_add_by_index
                0x0000000000007438                z_mrsh_atomic_xor
                0x0000000000007438                z_mrsh_ipm_max_id_val_get
                0x0000000000007438                z_mrsh_atomic_add
                0x0000000000007438                z_mrsh_ptp_clock_get
                0x0000000000007438                z_mrsh_zsock_connect
                0x0000000000007438                z_mrsh_wdt_feed
                0x0000000000007438                z_mrsh_zsock_shutdown
                0x0000000000007438                z_mrsh_zsock_getsockopt
                0x0000000000007438                z_mrsh_counter_us_to_ticks
                0x0000000000007438                z_mrsh_atomic_ptr_cas
                0x0000000000007438                z_mrsh_counter_get_pending_int
                0x0000000000007438                z_mrsh_adc_channel_setup
                0x0000000000007438                z_mrsh_zsock_poll
                0x0000000000007438                z_mrsh_zsock_close
                0x0000000000007438                z_mrsh_led_set_brightness
                0x0000000000007438                z_mrsh_atomic_ptr_set
                0x0000000000007438                z_mrsh_atomic_sub
                0x0000000000007438                z_mrsh_counter_set_guard_period
                0x0000000000007438                z_mrsh_kscan_config
                0x0000000000007438                z_mrsh_can_attach_msgq
                0x0000000000007438                z_mrsh_uart_irq_update
                0x0000000000007438                z_mrsh_zsock_socketpair
                0x0000000000007438                z_mrsh_can_get_state
                0x0000000000007438                z_mrsh_k_thread_deadline_set
                0x0000000000007438                z_mrsh_z_clock_hw_cycles_per_sec_runtime_get
                0x0000000000007438                z_mrsh_espi_write_request
                0x0000000000007438                z_mrsh_peci_config
                0x0000000000007438                z_mrsh_k_msgq_put
                0x0000000000007438                z_mrsh_kscan_enable_callback
                0x0000000000007438                z_mrsh_spi_transceive
                0x0000000000007438                z_mrsh_maxim_ds3231_req_syncpoint
                0x0000000000007438                z_mrsh_flash_get_page_info_by_idx
                0x0000000000007438                z_mrsh_counter_get_top_value
                0x0000000000007438                z_mrsh_i2s_buf_read
                0x0000000000007438                z_mrsh_k_msgq_num_used_get
                0x0000000000007438                z_mrsh_counter_get_max_relative_alarm
                0x0000000000007438                z_mrsh_i2s_configure
                0x0000000000007438                z_mrsh_uart_irq_err_disable
                0x0000000000007438                z_mrsh_dma_stop
                0x0000000000007438                z_mrsh_atomic_and
                0x0000000000007438                z_mrsh_net_if_ipv4_set_gw_by_index
                0x0000000000007438                z_mrsh_uart_irq_rx_disable
                0x0000000000007438                z_mrsh_k_pipe_write_avail
                0x0000000000007438                z_mrsh_flash_erase
                0x0000000000007438                z_mrsh_pwm_pin_set_cycles
                0x0000000000007438                z_mrsh_i2c_slave_driver_register
                0x0000000000007438                z_mrsh_k_thread_custom_data_set
                0x0000000000007438                z_mrsh_flash_get_page_count
                0x0000000000007438                z_mrsh_k_poll
                0x0000000000007438                z_mrsh_zsock_setsockopt
                0x0000000000007438                z_mrsh_counter_is_counting_up
                0x0000000000007438                z_mrsh_uart_drv_cmd
                0x0000000000007438                z_mrsh_kscan_disable_callback
                0x0000000000007438                z_mrsh_k_msgq_purge
                0x0000000000007438                z_mrsh_uart_rx_disable
                0x0000000000007438                z_mrsh_adc_read
                0x0000000000007438                z_mrsh_zsock_socket
                0x0000000000007438                z_mrsh_espi_receive_vwire
                0x0000000000007438                z_mrsh_peci_disable
                0x0000000000007438                z_mrsh_counter_cancel_channel_alarm
                0x0000000000007438                z_mrsh_uart_irq_tx_disable
                0x0000000000007438                z_mrsh_atomic_nand
                0x0000000000007438                z_mrsh_counter_set_top_value
                0x0000000000007438                z_mrsh_sensor_channel_get
                0x0000000000007438                z_mrsh_i2s_buf_write
                0x0000000000007438                z_mrsh_atomic_cas
                0x0000000000007438                z_mrsh_peci_transfer
                0x0000000000007438                z_mrsh_net_addr_pton
                0x0000000000007438                z_mrsh_k_pipe_put
                0x0000000000007438                z_mrsh_sensor_sample_fetch
                0x0000000000007438                z_mrsh_k_stack_pop
                0x0000000000007438                z_mrsh_espi_get_channel_status
                0x0000000000007438                z_mrsh_z_zsock_getaddrinfo_internal
                0x0000000000007438                z_mrsh_z_zephyr_write_stdout
                0x0000000000007438                z_mrsh_counter_ticks_to_us
                0x0000000000007438                z_mrsh_flash_write
                0x0000000000007438                z_mrsh_hwinfo_get_device_id
                0x0000000000007438                z_mrsh_k_poll_signal_init
                0x0000000000007438                z_mrsh_flash_read
                0x0000000000007438                z_mrsh_eeprom_read
                0x0000000000007438                z_mrsh_eeprom_write
 .text.handler_bad_syscall
                0x000000000000747c       0x48 kernel/libkernel.a(userspace.c.obj)
 .text.otype_to_str
                0x00000000000074c4       0x1c kernel/libkernel.a(userspace.c.obj)
                0x00000000000074c4                otype_to_str
 .text.z_thread_perms_inherit
                0x00000000000074e0       0x34 kernel/libkernel.a(userspace.c.obj)
                0x00000000000074e0                z_thread_perms_inherit
 .text.z_thread_perms_all_clear
                0x0000000000007514       0x1c kernel/libkernel.a(userspace.c.obj)
                0x0000000000007514                z_thread_perms_all_clear
 .text.z_dump_object_error
                0x0000000000007530      0x150 kernel/libkernel.a(userspace.c.obj)
                0x0000000000007530                z_dump_object_error
 .text.z_object_validate
                0x0000000000007680       0x74 kernel/libkernel.a(userspace.c.obj)
                0x0000000000007680                z_object_validate
 .text.z_user_from_copy
                0x00000000000076f4       0x80 kernel/libkernel.a(userspace.c.obj)
                0x00000000000076f4                z_user_from_copy
 .text.z_user_string_copy
                0x0000000000007774       0xac kernel/libkernel.a(userspace.c.obj)
                0x0000000000007774                z_user_string_copy
 .text.z_thread_malloc
                0x0000000000007820       0x2c kernel/libkernel.a(mempool.c.obj)
                0x0000000000007820                z_thread_malloc
 .text.z_mrsh_k_object_access_grant
                0x000000000000784c       0xc0 kernel/libkernel.a(userspace_handler.c.obj)
                0x000000000000784c                z_mrsh_k_object_access_grant
 .text.z_mrsh_k_object_release
                0x000000000000790c       0x68 kernel/libkernel.a(userspace_handler.c.obj)
                0x000000000000790c                z_mrsh_k_object_release
 .text.z_mrsh_k_object_alloc
                0x0000000000007974       0x64 kernel/libkernel.a(userspace_handler.c.obj)
                0x0000000000007974                z_mrsh_k_object_alloc
 .text.statics_init
                0x00000000000079d8       0x24 kernel/libkernel.a(kheap.c.obj)
 .text.arch_is_user_context
                0x00000000000079fc       0x14 ../app/libapp.a(led.c.obj)
 .text.gpio_port_clear_bits_raw
                0x0000000000007a10       0x22 ../app/libapp.a(led.c.obj)
 .text.device_get_binding
                0x0000000000007a32       0x20 ../app/libapp.a(led.c.obj)
 .text.gpio_pin_configure.constprop.0
                0x0000000000007a52       0x48 ../app/libapp.a(led.c.obj)
 .text.gpio_port_set_bits_raw
                0x0000000000007a9a       0x22 ../app/libapp.a(led.c.obj)
 .text.arch_is_user_context
                0x0000000000007abc       0x14 ../app/libapp.a(main.c.obj)
 .text.SetLed   0x0000000000007ad0       0x34 ../app/libapp.a(main.c.obj)
 .text.k_sleep  0x0000000000007b04       0x20 ../app/libapp.a(main.c.obj)
 .text.blinky   0x0000000000007b24       0x28 ../app/libapp.a(main.c.obj)
                0x0000000000007b24                blinky
 .text.arch_is_user_context
                0x0000000000007b4c       0x14 libzephyr.a(printk.c.obj)
 .text.arch_printk_char_out
                0x0000000000007b60        0x4 libzephyr.a(printk.c.obj)
                0x0000000000007b60                arch_printk_char_out
 .text.print_err
                0x0000000000007b64       0x1c libzephyr.a(printk.c.obj)
 .text.str_out  0x0000000000007b80       0x26 libzephyr.a(printk.c.obj)
 .text.buf_flush
                0x0000000000007ba6       0x28 libzephyr.a(printk.c.obj)
 .text.buf_char_out
                0x0000000000007bce       0x22 libzephyr.a(printk.c.obj)
 .text.printk   0x0000000000007bf0       0x1a libzephyr.a(printk.c.obj)
                0x0000000000007bf0                printk
 .text.snprintk
                0x0000000000007c0a       0x1a libzephyr.a(printk.c.obj)
                0x0000000000007c0a                snprintk
 .text.z_thread_entry
                0x0000000000007c24       0x3c libzephyr.a(thread_entry.c.obj)
                0x0000000000007c24                z_thread_entry
 .text.chunk_field
                0x0000000000007c60       0x18 libzephyr.a(heap.c.obj)
 .text.chunk_set
                0x0000000000007c78       0x1a libzephyr.a(heap.c.obj)
 .text.right_chunk
                0x0000000000007c92       0x14 libzephyr.a(heap.c.obj)
 .text.free_list_remove
                0x0000000000007ca6       0x66 libzephyr.a(heap.c.obj)
 .text.free_list_add
                0x0000000000007d0c       0x9a libzephyr.a(heap.c.obj)
 .text.split_alloc
                0x0000000000007da6       0xca libzephyr.a(heap.c.obj)
 .text.sys_heap_free
                0x0000000000007e70      0x166 libzephyr.a(heap.c.obj)
                0x0000000000007e70                sys_heap_free
 .text.sys_heap_alloc
                0x0000000000007fd6       0xb0 libzephyr.a(heap.c.obj)
                0x0000000000007fd6                sys_heap_alloc
 .text.sys_heap_init
                0x0000000000008086       0x88 libzephyr.a(heap.c.obj)
                0x0000000000008086                sys_heap_init
 .text.arch_is_user_context
                0x000000000000810e       0x14 libzephyr.a(mutex.c.obj)
 .text.z_impl_z_sys_mutex_kernel_lock
                0x0000000000008122       0x40 libzephyr.a(mutex.c.obj)
                0x0000000000008122                z_impl_z_sys_mutex_kernel_lock
 .text._ConfigAbsSyms
                0x0000000000008162        0x2 libzephyr.a(configs.c.obj)
                0x0000000000008162                _ConfigAbsSyms
 .text.log_list_init
                0x0000000000008164        0x8 libzephyr.a(log_list.c.obj)
                0x0000000000008164                log_list_init
 .text.log_list_add_tail
                0x000000000000816c       0x14 libzephyr.a(log_list.c.obj)
                0x000000000000816c                log_list_add_tail
 .text.log_list_head_peek
                0x0000000000008180        0x4 libzephyr.a(log_list.c.obj)
                0x0000000000008180                log_list_head_peek
 .text.log_list_head_get
                0x0000000000008184        0xc libzephyr.a(log_list.c.obj)
                0x0000000000008184                log_list_head_get
 .text.arch_is_user_context
                0x0000000000008190       0x14 libzephyr.a(log_core.c.obj)
 .text.z_log_msg_std_alloc
                0x00000000000081a4       0x12 libzephyr.a(log_core.c.obj)
 .text.k_cycle_get_32_wrapper
                0x00000000000081b6        0x4 libzephyr.a(log_core.c.obj)
 .text.dummy_timestamp
                0x00000000000081ba        0x4 libzephyr.a(log_core.c.obj)
 .text.log_process_thread_timer_expiry_fn
                0x00000000000081be        0x4 libzephyr.a(log_core.c.obj)
 .text.z_log_get_s_mask
                0x00000000000081c2       0x40 libzephyr.a(log_core.c.obj)
                0x00000000000081c2                z_log_get_s_mask
 .text.log_generic_from_user
                0x0000000000008202       0x32 libzephyr.a(log_core.c.obj)
                0x0000000000008202                log_generic_from_user
 .text.log_from_user
                0x0000000000008234       0x1a libzephyr.a(log_core.c.obj)
                0x0000000000008234                log_from_user
 .text.log_process.constprop.0
                0x000000000000824e       0x32 libzephyr.a(log_core.c.obj)
 .text.log_0    0x0000000000008280       0x1a libzephyr.a(log_core.c.obj)
                0x0000000000008280                log_0
 .text.log_1    0x000000000000829a       0x28 libzephyr.a(log_core.c.obj)
                0x000000000000829a                log_1
 .text.log_2    0x00000000000082c2       0x32 libzephyr.a(log_core.c.obj)
                0x00000000000082c2                log_2
 .text.log_3    0x00000000000082f4       0x38 libzephyr.a(log_core.c.obj)
                0x00000000000082f4                log_3
 .text.log_n    0x000000000000832c       0x16 libzephyr.a(log_core.c.obj)
                0x000000000000832c                log_n
 .text.log_hexdump
                0x0000000000008342       0x16 libzephyr.a(log_core.c.obj)
                0x0000000000008342                log_hexdump
 .text.log_hexdump_from_user
                0x0000000000008358       0x22 libzephyr.a(log_core.c.obj)
                0x0000000000008358                log_hexdump_from_user
 .text.log_msg_hexdump_data_op
                0x000000000000837a       0xa8 libzephyr.a(log_msg.c.obj)
 .text.log_msg_get
                0x0000000000008422       0x1a libzephyr.a(log_msg.c.obj)
                0x0000000000008422                log_msg_get
 .text.log_msg_nargs_get
                0x000000000000843c        0x6 libzephyr.a(log_msg.c.obj)
                0x000000000000843c                log_msg_nargs_get
 .text.log_msg_arg_get
                0x0000000000008442       0x3e libzephyr.a(log_msg.c.obj)
                0x0000000000008442                log_msg_arg_get
 .text.log_msg_put
                0x0000000000008480       0x26 libzephyr.a(log_msg.c.obj)
                0x0000000000008480                log_msg_put
 .text.log_msg_str_get
                0x00000000000084a6        0x4 libzephyr.a(log_msg.c.obj)
                0x00000000000084a6                log_msg_str_get
 .text.log_msg_create_n
                0x00000000000084aa       0xa8 libzephyr.a(log_msg.c.obj)
                0x00000000000084aa                log_msg_create_n
 .text.log_msg_hexdump_create
                0x0000000000008552       0xa6 libzephyr.a(log_msg.c.obj)
                0x0000000000008552                log_msg_hexdump_create
 .text.log_msg_hexdump_data_get
                0x00000000000085f8        0xe libzephyr.a(log_msg.c.obj)
                0x00000000000085f8                log_msg_hexdump_data_get
 .text.buffer_write
                0x0000000000008606       0x1a libzephyr.a(log_output.c.obj)
 .text.std_print
                0x0000000000008620      0x2ba libzephyr.a(log_output.c.obj)
 .text.log_output_flush
                0x00000000000088da       0x1a libzephyr.a(log_output.c.obj)
                0x00000000000088da                log_output_flush
 .text.out_func
                0x00000000000088f4       0x36 libzephyr.a(log_output.c.obj)
 .text.char_out
                0x000000000000892a       0x4a libzephyr.a(log_backend_uart.c.obj)
 .text.arch_is_user_context
                0x0000000000008974       0x14 libzephyr.a(log_backend_rtt.c.obj)
 .text.uart_poll_out
                0x0000000000008988       0x34 libzephyr.a(uart_console.c.obj)
 .text.arch_is_user_context
                0x00000000000089bc       0x14 libzephyr.a(nrf_power_clock.c.obj)
 .text.get_status
                0x00000000000089d0       0x1c libzephyr.a(nrf_power_clock.c.obj)
 .text.clock_stop
                0x00000000000089ec       0x5e libzephyr.a(nrf_power_clock.c.obj)
 .text.clock_async_start
                0x0000000000008a4a       0xcc libzephyr.a(nrf_power_clock.c.obj)
 .text.clock_start
                0x0000000000008b16        0x6 libzephyr.a(nrf_power_clock.c.obj)
 .text.clk_init
                0x0000000000008b1c       0x34 libzephyr.a(nrf_power_clock.c.obj)
 .text.z_clock_isr
                0x0000000000008b50        0x2 libzephyr.a(sys_clock_init.c.obj)
                0x0000000000008b50                z_clock_isr
 .text.z_clock_idle_exit
                0x0000000000008b52        0x2 libzephyr.a(sys_clock_init.c.obj)
                0x0000000000008b52                z_clock_idle_exit
 .text.SEGGER_RTT_Init
                0x0000000000008b54        0x4 libzephyr.a(SEGGER_RTT.c.obj)
                0x0000000000008b54                SEGGER_RTT_Init
 .text.rtt_init
                0x0000000000008b58        0xa libzephyr.a(SEGGER_RTT_zephyr.c.obj)
 .text.z_irq_spurious
                0x0000000000008b62        0x8 arch/arch/arm/core/aarch32/libarch__arm__core__aarch32.a(irq_manage.c.obj)
                0x0000000000008b62                z_irq_spurious
 .text.arch_is_user_context
                0x0000000000008b6a       0x14 arch/arch/arm/core/aarch32/libarch__arm__core__aarch32.a(fatal.c.obj)
 .text.z_do_kernel_oops
                0x0000000000008b7e       0x18 arch/arch/arm/core/aarch32/libarch__arm__core__aarch32.a(fatal.c.obj)
                0x0000000000008b7e                z_do_kernel_oops
 .text.arch_syscall_oops
                0x0000000000008b96       0x1c arch/arch/arm/core/aarch32/libarch__arm__core__aarch32.a(fatal.c.obj)
                0x0000000000008b96                arch_syscall_oops
 .text.z_arm_nmi
                0x0000000000008bb2        0xe arch/arch/arm/core/aarch32/libarch__arm__core__aarch32.a(nmi.c.obj)
                0x0000000000008bb2                z_arm_nmi
 .text.arch_is_user_context
                0x0000000000008bc0       0x14 arch/arch/arm/core/aarch32/cortex_m/libarch__arm__core__aarch32__cortex_m.a(fault.c.obj)
 .text.arch_is_user_context
                0x0000000000008bd4       0x14 arch/arch/arm/core/aarch32/cortex_m/mpu/libarch__arm__core__aarch32__cortex_m__mpu.a(arm_core_mpu.c.obj)
 .text.arch_mem_domain_max_partitions_get
                0x0000000000008be8        0xa arch/arch/arm/core/aarch32/cortex_m/mpu/libarch__arm__core__aarch32__cortex_m__mpu.a(arm_core_mpu.c.obj)
                0x0000000000008be8                arch_mem_domain_max_partitions_get
 .text.arch_buffer_validate
                0x0000000000008bf2        0x4 arch/arch/arm/core/aarch32/cortex_m/mpu/libarch__arm__core__aarch32__cortex_m__mpu.a(arm_core_mpu.c.obj)
                0x0000000000008bf2                arch_buffer_validate
 .text.arch_is_user_context
                0x0000000000008bf6       0x14 arch/arch/arm/core/aarch32/cortex_m/mpu/libarch__arm__core__aarch32__cortex_m__mpu.a(arm_mpu.c.obj)
 .text.strcpy   0x0000000000008c0a       0x14 lib/libc/minimal/liblib__libc__minimal.a(string.c.obj)
                0x0000000000008c0a                strcpy
 .text.strncpy  0x0000000000008c1e       0x26 lib/libc/minimal/liblib__libc__minimal.a(string.c.obj)
                0x0000000000008c1e                strncpy
 .text.strcmp   0x0000000000008c44       0x18 lib/libc/minimal/liblib__libc__minimal.a(string.c.obj)
                0x0000000000008c44                strcmp
 .text.memcpy   0x0000000000008c5c       0x56 lib/libc/minimal/liblib__libc__minimal.a(string.c.obj)
                0x0000000000008c5c                memcpy
 .text.memset   0x0000000000008cb2       0x46 lib/libc/minimal/liblib__libc__minimal.a(string.c.obj)
                0x0000000000008cb2                memset
 .text.arch_is_user_context
                0x0000000000008cf8       0x14 lib/libc/minimal/liblib__libc__minimal.a(stdout_console.c.obj)
 .text._stdout_hook_default
                0x0000000000008d0c        0x6 lib/libc/minimal/liblib__libc__minimal.a(stdout_console.c.obj)
 .text.z_platform_init
                0x0000000000008d12        0x4 soc/arm/nordic_nrf/nrf52/libsoc__arm__nordic_nrf__nrf52.a(soc.c.obj)
                0x0000000000008d12                z_platform_init
 .text.gpio_nrfx_port_get_raw
                0x0000000000008d16        0xe drivers/gpio/libdrivers__gpio.a(gpio_nrfx.c.obj)
 .text.gpio_nrfx_port_set_masked_raw
                0x0000000000008d24       0x16 drivers/gpio/libdrivers__gpio.a(gpio_nrfx.c.obj)
 .text.gpio_nrfx_port_set_bits_raw
                0x0000000000008d3a        0xc drivers/gpio/libdrivers__gpio.a(gpio_nrfx.c.obj)
 .text.gpio_nrfx_port_clear_bits_raw
                0x0000000000008d46        0xc drivers/gpio/libdrivers__gpio.a(gpio_nrfx.c.obj)
 .text.gpio_nrfx_port_toggle_bits
                0x0000000000008d52       0x12 drivers/gpio/libdrivers__gpio.a(gpio_nrfx.c.obj)
 .text.gpio_nrfx_manage_callback
                0x0000000000008d64       0x56 drivers/gpio/libdrivers__gpio.a(gpio_nrfx.c.obj)
 .text.fire_callbacks
                0x0000000000008dba       0x36 drivers/gpio/libdrivers__gpio.a(gpio_nrfx.c.obj)
 .text.check_level_trigger_pins
                0x0000000000008df0       0x4c drivers/gpio/libdrivers__gpio.a(gpio_nrfx.c.obj)
 .text.gpio_nrfx_pin_disable_callback
                0x0000000000008e3c       0x18 drivers/gpio/libdrivers__gpio.a(gpio_nrfx.c.obj)
 .text.cfg_level_pins
                0x0000000000008e54       0x48 drivers/gpio/libdrivers__gpio.a(gpio_nrfx.c.obj)
 .text.gpio_nrfx_pin_enable_callback
                0x0000000000008e9c       0x16 drivers/gpio/libdrivers__gpio.a(gpio_nrfx.c.obj)
 .text.arch_is_user_context
                0x0000000000008eb2       0x14 drivers/gpio/libdrivers__gpio.a(gpio_handlers.c.obj)
 .text.z_obj_validation_check.constprop.0
                0x0000000000008ec6       0x20 drivers/gpio/libdrivers__gpio.a(gpio_handlers.c.obj)
 .text.uart_nrfx_config_get
                0x0000000000008ee6       0x10 drivers/serial/libdrivers__serial.a(uart_nrfx_uart.c.obj)
 .text.uarte_nrfx_config_get
                0x0000000000008ef6       0x10 drivers/serial/libdrivers__serial.a(uart_nrfx_uarte.c.obj)
 .text.uarte_nrfx_err_check
                0x0000000000008f06        0xe drivers/serial/libdrivers__serial.a(uart_nrfx_uarte.c.obj)
 .text.uarte_nrfx_poll_in
                0x0000000000008f14       0x2e drivers/serial/libdrivers__serial.a(uart_nrfx_uarte.c.obj)
 .text.uarte_nrfx_poll_out
                0x0000000000008f42       0x8e drivers/serial/libdrivers__serial.a(uart_nrfx_uarte.c.obj)
 .text.arch_is_user_context
                0x0000000000008fd0       0x14 drivers/serial/libdrivers__serial.a(uart_handlers.c.obj)
 .text.z_obj_validation_check.constprop.0
                0x0000000000008fe4       0x20 drivers/serial/libdrivers__serial.a(uart_handlers.c.obj)
 .text.nrfx_busy_wait
                0x0000000000009004       0x28 ../modules/nordic/lib..__modules__hal__nordic.a(nrfx_glue.c.obj)
                0x0000000000009004                nrfx_busy_wait
 .text.arch_is_user_context
                0x000000000000902c       0x14 kernel/libkernel.a(fatal.c.obj)
 .text.arch_system_halt
                0x0000000000009040       0x12 kernel/libkernel.a(fatal.c.obj)
                0x0000000000009040                arch_system_halt
 .text.z_sys_power_save_idle_exit
                0x0000000000009052        0x4 kernel/libkernel.a(idle.c.obj)
                0x0000000000009052                z_sys_power_save_idle_exit
 .text.k_mem_slab_init
                0x0000000000009056       0x3a kernel/libkernel.a(mem_slab.c.obj)
                0x0000000000009056                k_mem_slab_init
 .text.arch_is_user_context
                0x0000000000009090       0x14 kernel/libkernel.a(mutex.c.obj)
 .text.z_obj_validation_check.constprop.0
                0x00000000000090a4       0x1e kernel/libkernel.a(mutex.c.obj)
 .text.z_impl_k_mutex_init
                0x00000000000090c2       0x14 kernel/libkernel.a(mutex.c.obj)
                0x00000000000090c2                z_impl_k_mutex_init
 .text.arch_is_user_context
                0x00000000000090d6       0x14 kernel/libkernel.a(queue.c.obj)
 .text.queue_insert
                0x00000000000090ea       0xba kernel/libkernel.a(queue.c.obj)
 .text.z_obj_validation_check.constprop.0
                0x00000000000091a4       0x1e kernel/libkernel.a(queue.c.obj)
 .text.z_queue_node_peek
                0x00000000000091c2       0x18 kernel/libkernel.a(queue.c.obj)
                0x00000000000091c2                z_queue_node_peek
 .text.z_impl_k_queue_init
                0x00000000000091da       0x12 kernel/libkernel.a(queue.c.obj)
                0x00000000000091da                z_impl_k_queue_init
 .text.z_impl_k_queue_cancel_wait
                0x00000000000091ec       0x36 kernel/libkernel.a(queue.c.obj)
                0x00000000000091ec                z_impl_k_queue_cancel_wait
 .text.z_impl_k_queue_alloc_append
                0x0000000000009222        0xa kernel/libkernel.a(queue.c.obj)
                0x0000000000009222                z_impl_k_queue_alloc_append
 .text.z_impl_k_queue_alloc_prepend
                0x000000000000922c        0xa kernel/libkernel.a(queue.c.obj)
                0x000000000000922c                z_impl_k_queue_alloc_prepend
 .text.arch_is_user_context
                0x0000000000009236       0x14 kernel/libkernel.a(sched.c.obj)
 .text.thread_obj_validate
                0x000000000000924a       0x28 kernel/libkernel.a(sched.c.obj)
 .text.z_obj_validation_check.constprop.0
                0x0000000000009272       0x20 kernel/libkernel.a(sched.c.obj)
 .text.z_find_first_thread_to_unpend
                0x0000000000009292       0x20 kernel/libkernel.a(sched.c.obj)
                0x0000000000009292                z_find_first_thread_to_unpend
 .text.z_unpend_thread_no_timeout
                0x00000000000092b2       0x32 kernel/libkernel.a(sched.c.obj)
                0x00000000000092b2                z_unpend_thread_no_timeout
 .text.z_reschedule
                0x00000000000092e4       0x16 kernel/libkernel.a(sched.c.obj)
                0x00000000000092e4                z_reschedule
 .text.z_reschedule_irqlock
                0x00000000000092fa       0x18 kernel/libkernel.a(sched.c.obj)
                0x00000000000092fa                z_reschedule_irqlock
 .text.z_reschedule_unlocked
                0x0000000000009312       0x14 kernel/libkernel.a(sched.c.obj)
 .text.z_unpend_thread
                0x0000000000009326       0x3a kernel/libkernel.a(sched.c.obj)
                0x0000000000009326                z_unpend_thread
 .text.z_priq_dumb_best
                0x0000000000009360       0x14 kernel/libkernel.a(sched.c.obj)
                0x0000000000009360                z_priq_dumb_best
 .text.z_ready_thread
                0x0000000000009374       0x20 kernel/libkernel.a(sched.c.obj)
                0x0000000000009374                z_ready_thread
 .text.z_thread_timeout
                0x0000000000009394       0x56 kernel/libkernel.a(sched.c.obj)
                0x0000000000009394                z_thread_timeout
 .text.z_remove_thread_from_ready_q
                0x00000000000093ea       0x20 kernel/libkernel.a(sched.c.obj)
                0x00000000000093ea                z_remove_thread_from_ready_q
 .text.add_to_waitq_locked
                0x000000000000940a       0x56 kernel/libkernel.a(sched.c.obj)
 .text.z_unpend_first_thread
                0x0000000000009460       0x5a kernel/libkernel.a(sched.c.obj)
                0x0000000000009460                z_unpend_first_thread
 .text.z_unpend_all
                0x00000000000094ba       0x20 kernel/libkernel.a(sched.c.obj)
                0x00000000000094ba                z_unpend_all
 .text.z_impl_k_wakeup
                0x00000000000094da       0x38 kernel/libkernel.a(sched.c.obj)
                0x00000000000094da                z_impl_k_wakeup
 .text.arch_is_user_context
                0x0000000000009512       0x14 kernel/libkernel.a(sem.c.obj)
 .text.z_obj_validation_check.constprop.0
                0x0000000000009526       0x1e kernel/libkernel.a(sem.c.obj)
 .text.z_impl_k_sem_init
                0x0000000000009544       0x1e kernel/libkernel.a(sem.c.obj)
                0x0000000000009544                z_impl_k_sem_init
 .text.arch_is_user_context
                0x0000000000009562       0x14 kernel/libkernel.a(thread.c.obj)
 .text.z_obj_validation_check
                0x0000000000009576       0x22 kernel/libkernel.a(thread.c.obj)
 .text.k_is_in_isr
                0x0000000000009598        0xc kernel/libkernel.a(thread.c.obj)
                0x0000000000009598                k_is_in_isr
 .text.z_impl_k_busy_wait
                0x00000000000095a4        0x4 kernel/libkernel.a(thread.c.obj)
                0x00000000000095a4                z_impl_k_busy_wait
 .text.z_impl_k_thread_name_set
                0x00000000000095a8        0x6 kernel/libkernel.a(thread.c.obj)
                0x00000000000095a8                z_impl_k_thread_name_set
 .text.k_thread_name_get
                0x00000000000095ae        0x4 kernel/libkernel.a(thread.c.obj)
                0x00000000000095ae                k_thread_name_get
 .text.z_impl_k_thread_create
                0x00000000000095b2       0x40 kernel/libkernel.a(thread.c.obj)
                0x00000000000095b2                z_impl_k_thread_create
 .text.z_abort_timeout
                0x00000000000095f2       0x2c kernel/libkernel.a(timeout.c.obj)
                0x00000000000095f2                z_abort_timeout
 .text.z_timeout_remaining
                0x000000000000961e       0x20 kernel/libkernel.a(timeout.c.obj)
                0x000000000000961e                z_timeout_remaining
 .text.z_get_next_timeout_expiry
                0x000000000000963e       0x20 kernel/libkernel.a(timeout.c.obj)
                0x000000000000963e                z_get_next_timeout_expiry
 .text.z_set_timeout_expiry
                0x000000000000965e       0x34 kernel/libkernel.a(timeout.c.obj)
                0x000000000000965e                z_set_timeout_expiry
 .text.z_tick_get_32
                0x0000000000009692        0x8 kernel/libkernel.a(timeout.c.obj)
                0x0000000000009692                z_tick_get_32
 .text.z_timeout_end_calc
                0x000000000000969a       0x52 kernel/libkernel.a(timeout.c.obj)
                0x000000000000969a                z_timeout_end_calc
 .text.arch_is_user_context
                0x00000000000096ec       0x14 kernel/libkernel.a(timer.c.obj)
 .text.z_obj_validation_check.constprop.0
                0x0000000000009700       0x20 kernel/libkernel.a(timer.c.obj)
 .text.k_timer_init
                0x0000000000009720       0x1a kernel/libkernel.a(timer.c.obj)
                0x0000000000009720                k_timer_init
 .text.z_impl_k_timer_stop
                0x000000000000973a       0x44 kernel/libkernel.a(timer.c.obj)
                0x000000000000973a                z_impl_k_timer_stop
 .text.z_impl_k_timer_status_get
                0x000000000000977e       0x22 kernel/libkernel.a(timer.c.obj)
                0x000000000000977e                z_impl_k_timer_status_get
 .text.z_impl_k_futex_wake
                0x00000000000097a0       0x5a kernel/libkernel.a(futex.c.obj)
                0x00000000000097a0                z_impl_k_futex_wake
 .text.z_impl_k_futex_wait
                0x00000000000097fa       0x66 kernel/libkernel.a(futex.c.obj)
                0x00000000000097fa                z_impl_k_futex_wait
 .text.k_mem_domain_add_thread
                0x0000000000009860       0x40 kernel/libkernel.a(mem_domain.c.obj)
                0x0000000000009860                k_mem_domain_add_thread
 .text.arch_is_user_context
                0x00000000000098a0       0x14 kernel/libkernel.a(userspace.c.obj)
 .text.unref_check
                0x00000000000098b4       0x36 kernel/libkernel.a(userspace.c.obj)
 .text.wordlist_cb
                0x00000000000098ea       0x38 kernel/libkernel.a(userspace.c.obj)
 .text.clear_perms_cb
                0x0000000000009922        0x4 kernel/libkernel.a(userspace.c.obj)
 .text.thread_index_get
                0x0000000000009926       0x12 kernel/libkernel.a(userspace.c.obj)
 .text.z_priv_stack_find
                0x0000000000009938        0xc kernel/libkernel.a(userspace.c.obj)
                0x0000000000009938                z_priv_stack_find
 .text.z_thread_perms_set
                0x0000000000009944       0x28 kernel/libkernel.a(userspace.c.obj)
                0x0000000000009944                z_thread_perms_set
 .text.z_thread_perms_clear
                0x000000000000996c       0x34 kernel/libkernel.a(userspace.c.obj)
                0x000000000000996c                z_thread_perms_clear
 .text.z_impl_k_object_access_grant
                0x00000000000099a0       0x16 kernel/libkernel.a(userspace.c.obj)
                0x00000000000099a0                z_impl_k_object_access_grant
 .text.z_object_init
                0x00000000000099b6       0x12 kernel/libkernel.a(userspace.c.obj)
                0x00000000000099b6                z_object_init
 .text.z_object_uninit
                0x00000000000099c8       0x12 kernel/libkernel.a(userspace.c.obj)
                0x00000000000099c8                z_object_uninit
 .text.k_mem_pool_malloc
                0x00000000000099da       0x30 kernel/libkernel.a(mempool.c.obj)
                0x00000000000099da                k_mem_pool_malloc
 .text.k_free   0x0000000000009a0a        0xa kernel/libkernel.a(mempool.c.obj)
                0x0000000000009a0a                k_free
 .text.arch_is_user_context
                0x0000000000009a14       0x14 kernel/libkernel.a(userspace_handler.c.obj)
 .text.validate_any_object
                0x0000000000009a28       0x24 kernel/libkernel.a(userspace_handler.c.obj)
 .text.k_heap_init
                0x0000000000009a4c       0x10 kernel/libkernel.a(kheap.c.obj)
                0x0000000000009a4c                k_heap_init
 .text.k_heap_alloc
                0x0000000000009a5c       0x86 kernel/libkernel.a(kheap.c.obj)
                0x0000000000009a5c                k_heap_alloc
 .text.k_heap_free
                0x0000000000009ae2       0x3a kernel/libkernel.a(kheap.c.obj)
                0x0000000000009ae2                k_heap_free
 .text.k_mem_pool_alloc
                0x0000000000009b1c       0x32 kernel/libkernel.a(kheap.c.obj)
                0x0000000000009b1c                k_mem_pool_alloc
 .text.k_mem_pool_free_id
                0x0000000000009b4e        0x8 kernel/libkernel.a(kheap.c.obj)
                0x0000000000009b4e                k_mem_pool_free_id
 .text._OffsetAbsSyms
                0x0000000000009b56        0x2 CMakeFiles/offsets.dir/arch/arm/core/offsets/offsets.c.obj
                0x0000000000009b56                _OffsetAbsSyms
 *(SORT_BY_ALIGNMENT(.gnu.linkonce.t.*))
 *(SORT_BY_ALIGNMENT(.glue_7t))
 .glue_7t       0x0000000000009b58        0x0 linker stubs
 *(SORT_BY_ALIGNMENT(.glue_7))
 .glue_7        0x0000000000009b58        0x0 linker stubs
 *(SORT_BY_ALIGNMENT(.vfp11_veneer))
 .vfp11_veneer  0x0000000000009b58        0x0 linker stubs
 *(SORT_BY_ALIGNMENT(.v4_bx))
 .v4_bx         0x0000000000009b58        0x0 linker stubs
                0x0000000000009b58                _image_text_end = .

.ARM.exidx      0x0000000000009b58        0x8
                0x0000000000009b58                __exidx_start = .
 *(SORT_BY_ALIGNMENT(.ARM.exidx*) SORT_BY_ALIGNMENT(gnu.linkonce.armexidx.*))
 .ARM.exidx     0x0000000000009b58        0x8 /home/rgujju/zephyr-sdk/arm-zephyr-eabi/bin/../lib/gcc/arm-zephyr-eabi/9.2.0/thumb/v7e-m/nofp/libgcc.a(_udivmoddi4.o)
                0x0000000000009b60                __exidx_end = .
                0x0000000000009b60                _image_rodata_start = .

initlevel       0x0000000000009b60       0x78
                0x0000000000009b60                __init_start = .
                0x0000000000009b60                __init_PRE_KERNEL_1_start = .
 *(SORT_BY_NAME(SORT_BY_ALIGNMENT(.init_PRE_KERNEL_1[0-9])))
 .init_PRE_KERNEL_10
                0x0000000000009b60        0x8 soc/arm/nordic_nrf/nrf52/libsoc__arm__nordic_nrf__nrf52.a(soc.c.obj)
 *(SORT_BY_NAME(SORT_BY_ALIGNMENT(.init_PRE_KERNEL_1[1-9][0-9])))
 .init_PRE_KERNEL_130
                0x0000000000009b68        0x8 libzephyr.a(SEGGER_RTT_zephyr.c.obj)
 .init_PRE_KERNEL_130
                0x0000000000009b70        0x8 kernel/libkernel.a(mem_slab.c.obj)
 .init_PRE_KERNEL_130
                0x0000000000009b78        0x8 kernel/libkernel.a(kheap.c.obj)
 .init_PRE_KERNEL_140
                0x0000000000009b80        0x8 arch/arch/arm/core/aarch32/cortex_m/mpu/libarch__arm__core__aarch32__cortex_m__mpu.a(arm_mpu.c.obj)
 .init_PRE_KERNEL_140
                0x0000000000009b88        0x8 kernel/libkernel.a(mem_domain.c.obj)
 .init_PRE_KERNEL_140
                0x0000000000009b90        0x8 kernel/libkernel.a(userspace.c.obj)
 .init_PRE_KERNEL_150
                0x0000000000009b98        0x8 libzephyr.a(nrf_power_clock.c.obj)
 .init_PRE_KERNEL_150
                0x0000000000009ba0        0x8 drivers/serial/libdrivers__serial.a(uart_nrfx_uart.c.obj)
 .init_PRE_KERNEL_150
                0x0000000000009ba8        0x8 drivers/serial/libdrivers__serial.a(uart_nrfx_uarte.c.obj)
 .init_PRE_KERNEL_160
                0x0000000000009bb0        0x8 libzephyr.a(uart_console.c.obj)
                0x0000000000009bb8                __init_PRE_KERNEL_2_start = .
 *(SORT_BY_NAME(SORT_BY_ALIGNMENT(.init_PRE_KERNEL_2[0-9])))
 .init_PRE_KERNEL_20
                0x0000000000009bb8        0x8 libzephyr.a(sys_clock_init.c.obj)
 *(SORT_BY_NAME(SORT_BY_ALIGNMENT(.init_PRE_KERNEL_2[1-9][0-9])))
                0x0000000000009bc0                __init_POST_KERNEL_start = .
 *(SORT_BY_NAME(SORT_BY_ALIGNMENT(.init_POST_KERNEL[0-9])))
 .init_POST_KERNEL0
                0x0000000000009bc0        0x8 libzephyr.a(log_core.c.obj)
 *(SORT_BY_NAME(SORT_BY_ALIGNMENT(.init_POST_KERNEL[1-9][0-9])))
 .init_POST_KERNEL40
                0x0000000000009bc8       0x10 drivers/gpio/libdrivers__gpio.a(gpio_nrfx.c.obj)
                0x0000000000009bd8                __init_APPLICATION_start = .
 *(SORT_BY_NAME(SORT_BY_ALIGNMENT(.init_APPLICATION[0-9])))
 *(SORT_BY_NAME(SORT_BY_ALIGNMENT(.init_APPLICATION[1-9][0-9])))
                0x0000000000009bd8                __init_SMP_start = .
 *(SORT_BY_NAME(SORT_BY_ALIGNMENT(.init_SMP[0-9])))
 *(SORT_BY_NAME(SORT_BY_ALIGNMENT(.init_SMP[1-9][0-9])))
                0x0000000000009bd8                __init_end = .

sw_isr_table    0x0000000000009bd8      0x180
                0x0000000000009bd8                . = ALIGN (0x0)
 *(SORT_BY_ALIGNMENT(.gnu.linkonce.sw_isr_table))
 .gnu.linkonce.sw_isr_table
                0x0000000000009bd8      0x180 arch/common/libarch__common.a(isr_tables.c.obj)
                0x0000000000009bd8                _sw_isr_table

initlevel_error
                0x0000000000009b60        0x0
 *(SORT_BY_NAME(SORT_BY_ALIGNMENT(.init_[_A-Z0-9]*)))
                0x0000000000000001                ASSERT ((SIZEOF (initlevel_error) == 0x0), Undefined initialization levels used.)

object_access   0x0000000000009d58        0x0
                0x0000000000009d58                _z_object_assignment_list_start = .
 *(SORT_BY_ALIGNMENT(._z_object_assignment.*))
                0x0000000000009d58                _z_object_assignment_list_end = .

app_shmem_regions
                0x0000000000009d58        0x0
                0x0000000000009d58                __app_shmem_regions_start = .
 *(SORT_BY_NAME(SORT_BY_ALIGNMENT(.app_regions.*)))
                0x0000000000009d58                __app_shmem_regions_end = .

net_l2          0x0000000000009d58        0x0
                0x0000000000009d58                __net_l2_start = .
 *(SORT_BY_ALIGNMENT(.net_l2.init))
 *(SORT_BY_NAME(SORT_BY_ALIGNMENT(.net_l2.init*)))
                0x0000000000009d58                __net_l2_end = .

_bt_channels_area
                0x0000000000009d58        0x0
                0x0000000000009d58                _bt_l2cap_fixed_chan_list_start = .
 *(SORT_BY_NAME(SORT_BY_ALIGNMENT(._bt_l2cap_fixed_chan.static.*)))
                0x0000000000009d58                _bt_l2cap_fixed_chan_list_end = .

_bt_services_area
                0x0000000000009d58        0x0
                0x0000000000009d58                _bt_gatt_service_static_list_start = .
 *(SORT_BY_NAME(SORT_BY_ALIGNMENT(._bt_gatt_service_static.static.*)))
                0x0000000000009d58                _bt_gatt_service_static_list_end = .

log_const_sections
                0x0000000000009d58       0x38
                0x0000000000009d58                __log_const_start = .
 *(SORT_BY_NAME(SORT_BY_ALIGNMENT(.log_const_*)))
 .log_const_clock_control
                0x0000000000009d58        0x8 libzephyr.a(nrf_power_clock.c.obj)
                0x0000000000009d58                log_const_clock_control
 .log_const_log
                0x0000000000009d60        0x8 libzephyr.a(log_core.c.obj)
                0x0000000000009d60                log_const_log
 .log_const_mpu
                0x0000000000009d68        0x8 arch/arch/arm/core/aarch32/cortex_m/mpu/libarch__arm__core__aarch32__cortex_m__mpu.a(arm_core_mpu.c.obj)
                0x0000000000009d68                log_const_mpu
 .log_const_os  0x0000000000009d70        0x8 kernel/libkernel.a(init.c.obj)
                0x0000000000009d70                log_const_os
 .log_const_power
                0x0000000000009d78        0x8 libzephyr.a(power.c.obj)
                0x0000000000009d78                log_const_power
 .log_const_soc
                0x0000000000009d80        0x8 soc/arm/nordic_nrf/nrf52/libsoc__arm__nordic_nrf__nrf52.a(soc.c.obj)
                0x0000000000009d80                log_const_soc
 .log_const_uart_nrfx_uarte
                0x0000000000009d88        0x8 drivers/serial/libdrivers__serial.a(uart_nrfx_uarte.c.obj)
                0x0000000000009d88                log_const_uart_nrfx_uarte
                0x0000000000009d90                __log_const_end = .

log_backends_sections
                0x0000000000009d90       0x20
                0x0000000000009d90                __log_backends_start = .
 *(SORT_BY_ALIGNMENT(._log_backend.*))
 ._log_backend.static.log_backend_uart
                0x0000000000009d90       0x10 libzephyr.a(log_backend_uart.c.obj)
 ._log_backend.static.log_backend_rtt
                0x0000000000009da0       0x10 libzephyr.a(log_backend_rtt.c.obj)
                0x0000000000009db0                __log_backends_end = .

shell_sections  0x0000000000009db0        0x0
                0x0000000000009db0                _shell_list_start = .
 *(SORT_BY_NAME(SORT_BY_ALIGNMENT(._shell.static.*)))
                0x0000000000009db0                _shell_list_end = .

shell_root_cmds_sections
                0x0000000000009db0        0x0
                0x0000000000009db0                __shell_root_cmds_start = .
 *(SORT_BY_NAME(SORT_BY_ALIGNMENT(.shell_root_cmd_*)))
                0x0000000000009db0                __shell_root_cmds_end = .

font_entry_sections
                0x0000000000009db0        0x0
                0x0000000000009db0                __font_entry_start = .
 *(SORT_BY_NAME(SORT_BY_ALIGNMENT(._cfb_font.*)))
                0x0000000000009db0                __font_entry_end = .

tracing_backends_sections
                0x0000000000009db0        0x0
                0x0000000000009db0                _tracing_backend_list_start = .
 *(SORT_BY_ALIGNMENT(._tracing_backend.*))
                0x0000000000009db0                _tracing_backend_list_end = .

rodata          0x0000000000009db0     0x1b04
 *(SORT_BY_ALIGNMENT(.rodata))
 *(SORT_BY_ALIGNMENT(.rodata.*))
 .rodata.delay_machine_code.9391
                0x0000000000009db0        0x6 soc/arm/nordic_nrf/nrf52/libsoc__arm__nordic_nrf__nrf52.a(soc.c.obj)
 *fill*         0x0000000000009db6        0x2 
 .rodata.colors
                0x0000000000009db8       0x14 libzephyr.a(log_output.c.obj)
 .rodata.severity
                0x0000000000009dcc       0x14 libzephyr.a(log_output.c.obj)
 .rodata.log_backend_uart_api
                0x0000000000009de0       0x18 libzephyr.a(log_backend_uart.c.obj)
                0x0000000000009de0                log_backend_uart_api
 .rodata.log_output
                0x0000000000009df8       0x10 libzephyr.a(log_backend_uart.c.obj)
 .rodata.log_backend_rtt_api
                0x0000000000009e08       0x18 libzephyr.a(log_backend_rtt.c.obj)
                0x0000000000009e08                log_backend_rtt_api
 .rodata.log_output
                0x0000000000009e20       0x10 libzephyr.a(log_backend_rtt.c.obj)
 .rodata.clock_control_api
                0x0000000000009e30       0x14 libzephyr.a(nrf_power_clock.c.obj)
 .rodata.config
                0x0000000000009e44       0x10 libzephyr.a(nrf_power_clock.c.obj)
 .rodata.mpu_config
                0x0000000000009e54        0x8 soc/arm/common/cortex_m/libsoc__arm__common__cortex_m.a(arm_mpu_regions.c.obj)
                0x0000000000009e54                mpu_config
 .rodata.mpu_regions
                0x0000000000009e5c       0x18 soc/arm/common/cortex_m/libsoc__arm__common__cortex_m.a(arm_mpu_regions.c.obj)
 .rodata.gpio_nrfx_drv_api_funcs
                0x0000000000009e74       0x2c drivers/gpio/libdrivers__gpio.a(gpio_nrfx.c.obj)
 .rodata.gpio_nrfx_p0_cfg
                0x0000000000009ea0        0xc drivers/gpio/libdrivers__gpio.a(gpio_nrfx.c.obj)
 .rodata.gpio_nrfx_p1_cfg
                0x0000000000009eac        0xc drivers/gpio/libdrivers__gpio.a(gpio_nrfx.c.obj)
 .rodata.uart_nrfx_uart_driver_api
                0x0000000000009eb8       0x14 drivers/serial/libdrivers__serial.a(uart_nrfx_uart.c.obj)
 .rodata.uart_nrfx_uarte_driver_api
                0x0000000000009ecc       0x14 drivers/serial/libdrivers__serial.a(uart_nrfx_uarte.c.obj)
 .rodata.uarte_1z_config
                0x0000000000009ee0        0x8 drivers/serial/libdrivers__serial.a(uart_nrfx_uarte.c.obj)
 .rodata.levels.9516
                0x0000000000009ee8       0x14 kernel/libkernel.a(device.c.obj)
 .rodata._k_neg_eagain
                0x0000000000009efc        0x4 kernel/libkernel.a(errno.c.obj)
                0x0000000000009efc                _k_neg_eagain
 .rodata.CSWTCH.23
                0x0000000000009f00       0x14 kernel/libkernel.a(fatal.c.obj)
 .rodata.CSWTCH.124
                0x0000000000009f14       0x98 kernel/libkernel.a(userspace.c.obj)
 .rodata._k_syscall_table
                0x0000000000009fac      0x420 kernel/libkernel.a(userspace.c.obj)
                0x0000000000009fac                _k_syscall_table
 .rodata.initLeds.str1.1
                0x000000000000a3cc        0xe ../app/libapp.a(led.c.obj)
 .rodata.main.str1.1
                0x000000000000a3da       0x23 ../app/libapp.a(main.c.obj)
                                         0x25 (size before relaxing)
 .rodata.z_mrsh_k_str_out.str1.1
                0x000000000000a3fd       0x46 libzephyr.a(printk.c.obj)
                                         0x4b (size before relaxing)
 .rodata.__func__.9609
                0x000000000000a443       0x11 libzephyr.a(printk.c.obj)
 .rodata.check_sys_mutex_addr.str1.1
                0x000000000000a454        0x6 libzephyr.a(mutex.c.obj)
                                         0x4c (size before relaxing)
 .rodata.__func__.9517
                0x000000000000a45a       0x15 libzephyr.a(mutex.c.obj)
 .rodata.enable_logger.str1.1
                0x000000000000a46f        0x8 libzephyr.a(log_core.c.obj)
 .rodata.log_strdup.str1.1
                0x000000000000a477       0x1a libzephyr.a(log_core.c.obj)
 .rodata.z_impl_log_process.str1.1
                0x000000000000a491       0x3f libzephyr.a(log_core.c.obj)
 .rodata.z_vrfy_log_filter_set.str1.1
                0x000000000000a4d0       0xde libzephyr.a(log_core.c.obj)
 .rodata.z_vrfy_z_log_string_from_user.str1.1
                0x000000000000a5ae       0x32 libzephyr.a(log_core.c.obj)
                                         0x80 (size before relaxing)
 .rodata.str1.1
                0x000000000000a5e0        0x4 libzephyr.a(log_core.c.obj)
 .rodata.__func__.10073
                0x000000000000a5e4       0x16 libzephyr.a(log_core.c.obj)
 .rodata.__func__.10200
                0x000000000000a5fa       0x1e libzephyr.a(log_core.c.obj)
 .rodata.__func__.10306
                0x000000000000a618       0x1f libzephyr.a(log_core.c.obj)
 .rodata.prefix_print.str1.1
                0x000000000000a637       0x39 libzephyr.a(log_output.c.obj)
                                         0x3c (size before relaxing)
 .rodata.postfix_print.str1.1
                0x000000000000a670        0x3 libzephyr.a(log_output.c.obj)
                                          0x5 (size before relaxing)
 .rodata.hexdump_line_print.str1.1
                0x000000000000a673        0xf libzephyr.a(log_output.c.obj)
                                         0x11 (size before relaxing)
 .rodata.log_output_msg_process.str1.1
                0x000000000000a682        0x2 libzephyr.a(log_output.c.obj)
 .rodata.log_output_dropped_process.str1.1
                0x000000000000a684        0x2 libzephyr.a(log_output.c.obj)
                                          0x3 (size before relaxing)
 .rodata.str1.1
                0x000000000000a684       0x20 libzephyr.a(log_output.c.obj)
 .rodata.postfix.9855
                0x000000000000a6a4       0x1c libzephyr.a(log_output.c.obj)
 .rodata.prefix.9854
                0x000000000000a6c0        0xc libzephyr.a(log_output.c.obj)
 .rodata.log_backend_uart_init.str1.1
                0x000000000000a6cc        0x7 libzephyr.a(log_backend_uart.c.obj)
 .rodata.str1.1
                0x000000000000a6d3       0x11 libzephyr.a(log_backend_uart.c.obj)
 .rodata.str1.1
                0x000000000000a6e4       0x10 libzephyr.a(log_backend_rtt.c.obj)
 .rodata.str1.1
                0x000000000000a6f4        0x6 libzephyr.a(power.c.obj)
 .rodata.uart_console_init.str1.1
                0x000000000000a6fa        0x7 libzephyr.a(uart_console.c.obj)
 .rodata.str1.1
                0x000000000000a6fa       0x20 libzephyr.a(nrf_power_clock.c.obj)
 .rodata.str1.1
                0x000000000000a71a        0xa libzephyr.a(sys_clock_init.c.obj)
 .rodata.z_clock_driver_init.str1.1
                0x000000000000a724        0x6 libzephyr.a(nrf_rtc_timer.c.obj)
 .rodata._DoInit.str1.1
                0x000000000000a724       0x14 libzephyr.a(SEGGER_RTT.c.obj)
 .rodata.z_arm_fatal_error.str1.1
                0x000000000000a738       0x9b arch/arch/arm/core/aarch32/libarch__arm__core__aarch32.a(fatal.c.obj)
 .rodata.bus_fault.str1.1
                0x000000000000a7d3       0xca arch/arch/arm/core/aarch32/cortex_m/libarch__arm__core__aarch32__cortex_m.a(fault.c.obj)
 .rodata.usage_fault.isra.0.str1.1
                0x000000000000a89d       0xcd arch/arch/arm/core/aarch32/cortex_m/libarch__arm__core__aarch32__cortex_m.a(fault.c.obj)
 .rodata.mem_manage_fault.str1.1
                0x000000000000a96a       0x96 arch/arch/arm/core/aarch32/cortex_m/libarch__arm__core__aarch32__cortex_m.a(fault.c.obj)
 .rodata.z_arm_fault.str1.1
                0x000000000000aa00       0xf9 arch/arch/arm/core/aarch32/cortex_m/libarch__arm__core__aarch32__cortex_m.a(fault.c.obj)
 .rodata.str1.1
                0x000000000000aaf9        0x4 arch/arch/arm/core/aarch32/cortex_m/mpu/libarch__arm__core__aarch32__cortex_m__mpu.a(arm_core_mpu.c.obj)
 .rodata.mpu_configure_region.str1.1
                0x000000000000aafd       0x26 arch/arch/arm/core/aarch32/cortex_m/mpu/libarch__arm__core__aarch32__cortex_m__mpu.a(arm_mpu.c.obj)
 .rodata.arm_core_mpu_configure_static_mpu_regions.str1.1
                0x000000000000ab23       0x23 arch/arch/arm/core/aarch32/cortex_m/mpu/libarch__arm__core__aarch32__cortex_m__mpu.a(arm_mpu.c.obj)
 .rodata.z_mrsh_zephyr_fwrite.str1.1
                0x000000000000ab46       0x34 lib/libc/minimal/liblib__libc__minimal.a(stdout_console.c.obj)
                                         0x7f (size before relaxing)
 .rodata.__func__.9619
                0x000000000000ab7a       0x15 lib/libc/minimal/liblib__libc__minimal.a(stdout_console.c.obj)
 .rodata.str1.1
                0x000000000000ab8f        0xf soc/arm/common/cortex_m/libsoc__arm__common__cortex_m.a(arm_mpu_regions.c.obj)
 .rodata.str1.1
                0x000000000000ab9e        0x4 soc/arm/nordic_nrf/nrf52/libsoc__arm__nordic_nrf__nrf52.a(soc.c.obj)
 .rodata.str1.1
                0x000000000000aba2        0xe drivers/gpio/libdrivers__gpio.a(gpio_nrfx.c.obj)
 .rodata.z_mrsh_gpio_config.str1.1
                0x000000000000aba2       0x7e drivers/gpio/libdrivers__gpio.a(gpio_handlers.c.obj)
 .rodata.z_mrsh_gpio_port_get_raw.str1.1
                0x000000000000ac20        0xd drivers/gpio/libdrivers__gpio.a(gpio_handlers.c.obj)
                                         0x59 (size before relaxing)
 .rodata.z_mrsh_gpio_port_set_masked_raw.str1.1
                0x000000000000ac2d       0x14 drivers/gpio/libdrivers__gpio.a(gpio_handlers.c.obj)
 .rodata.z_mrsh_gpio_port_set_bits_raw.str1.1
                0x000000000000ac41       0x12 drivers/gpio/libdrivers__gpio.a(gpio_handlers.c.obj)
 .rodata.z_mrsh_gpio_port_clear_bits_raw.str1.1
                0x000000000000ac53       0x14 drivers/gpio/libdrivers__gpio.a(gpio_handlers.c.obj)
 .rodata.z_mrsh_gpio_port_toggle_bits.str1.1
                0x000000000000ac67       0x11 drivers/gpio/libdrivers__gpio.a(gpio_handlers.c.obj)
 .rodata.z_mrsh_gpio_pin_interrupt_configure.str1.1
                0x000000000000ac78       0x18 drivers/gpio/libdrivers__gpio.a(gpio_handlers.c.obj)
 .rodata.z_mrsh_gpio_enable_callback.str1.1
                0x000000000000ac90       0x10 drivers/gpio/libdrivers__gpio.a(gpio_handlers.c.obj)
 .rodata.z_mrsh_gpio_disable_callback.str1.1
                0x000000000000aca0       0x11 drivers/gpio/libdrivers__gpio.a(gpio_handlers.c.obj)
 .rodata.z_mrsh_gpio_get_pending_int.str1.1
                0x000000000000acb1       0x10 drivers/gpio/libdrivers__gpio.a(gpio_handlers.c.obj)
 .rodata.__func__.10025
                0x000000000000acc1       0x1e drivers/gpio/libdrivers__gpio.a(gpio_handlers.c.obj)
 .rodata.__func__.10070
                0x000000000000acdf       0x20 drivers/gpio/libdrivers__gpio.a(gpio_handlers.c.obj)
 .rodata.__func__.10115
                0x000000000000acff       0x1d drivers/gpio/libdrivers__gpio.a(gpio_handlers.c.obj)
 .rodata.__func__.10161
                0x000000000000ad1c       0x24 drivers/gpio/libdrivers__gpio.a(gpio_handlers.c.obj)
 .rodata.__func__.10208
                0x000000000000ad40       0x1c drivers/gpio/libdrivers__gpio.a(gpio_handlers.c.obj)
 .rodata.__func__.10253
                0x000000000000ad5c       0x1d drivers/gpio/libdrivers__gpio.a(gpio_handlers.c.obj)
 .rodata.__func__.10297
                0x000000000000ad79       0x1c drivers/gpio/libdrivers__gpio.a(gpio_handlers.c.obj)
 .rodata.__func__.9872
                0x000000000000ad95       0x13 drivers/gpio/libdrivers__gpio.a(gpio_handlers.c.obj)
 .rodata.__func__.9919
                0x000000000000ada8       0x19 drivers/gpio/libdrivers__gpio.a(gpio_handlers.c.obj)
 .rodata.__func__.9978
                0x000000000000adc1       0x20 drivers/gpio/libdrivers__gpio.a(gpio_handlers.c.obj)
 .rodata.str1.1
                0x000000000000ade1        0x7 drivers/serial/libdrivers__serial.a(uart_nrfx_uart.c.obj)
 .rodata.uart_nrfx_uart0_config
                0x000000000000ade1        0x1 drivers/serial/libdrivers__serial.a(uart_nrfx_uart.c.obj)
 .rodata.str1.1
                0x000000000000ade2       0x17 drivers/serial/libdrivers__serial.a(uart_nrfx_uarte.c.obj)
 .rodata.z_mrsh_uart_err_check.str1.1
                0x000000000000adf9        0xa drivers/serial/libdrivers__serial.a(uart_handlers.c.obj)
                                         0x7a (size before relaxing)
 .rodata.z_mrsh_uart_poll_in.str1.1
                0x000000000000ae03        0x8 drivers/serial/libdrivers__serial.a(uart_handlers.c.obj)
                                         0x54 (size before relaxing)
 .rodata.z_mrsh_uart_poll_out.str1.1
                0x000000000000ae0b        0x9 drivers/serial/libdrivers__serial.a(uart_handlers.c.obj)
 .rodata.z_mrsh_uart_config_get.str1.1
                0x000000000000ae14        0xb drivers/serial/libdrivers__serial.a(uart_handlers.c.obj)
 .rodata.z_mrsh_uart_configure.str1.1
                0x000000000000ae1f        0x5 drivers/serial/libdrivers__serial.a(uart_handlers.c.obj)
 .rodata.__func__.9791
                0x000000000000ae1f       0x16 drivers/serial/libdrivers__serial.a(uart_handlers.c.obj)
 .rodata.__func__.9834
                0x000000000000ae35       0x14 drivers/serial/libdrivers__serial.a(uart_handlers.c.obj)
 .rodata.__func__.9892
                0x000000000000ae49       0x15 drivers/serial/libdrivers__serial.a(uart_handlers.c.obj)
 .rodata.__func__.9936
                0x000000000000ae5e       0x17 drivers/serial/libdrivers__serial.a(uart_handlers.c.obj)
 .rodata.__func__.9994
                0x000000000000ae75       0x16 drivers/serial/libdrivers__serial.a(uart_handlers.c.obj)
 .rodata.CSWTCH.5
                0x000000000000ae8b        0x4 ../modules/nordic/lib..__modules__hal__nordic.a(system_nrf52840.c.obj)
 .rodata.k_sys_fatal_error_handler.str1.1
                0x000000000000ae8f        0xf kernel/libkernel.a(fatal.c.obj)
 .rodata.z_fatal_error.str1.1
                0x000000000000ae9e       0x77 kernel/libkernel.a(fatal.c.obj)
 .rodata.str1.1
                0x000000000000af15       0x4a kernel/libkernel.a(fatal.c.obj)
 .rodata.bg_thread_main.str1.1
                0x000000000000af5f       0x48 kernel/libkernel.a(init.c.obj)
                                         0x49 (size before relaxing)
 .rodata.z_cstart.str1.1
                0x000000000000afa7        0x5 kernel/libkernel.a(init.c.obj)
 .rodata.str1.1
                0x000000000000afac        0x3 kernel/libkernel.a(init.c.obj)
 .rodata.z_mrsh_k_mutex_init.str1.1
                0x000000000000afaf       0x27 kernel/libkernel.a(mutex.c.obj)
 .rodata.__func__.9833
                0x000000000000afaf       0x14 kernel/libkernel.a(mutex.c.obj)
 .rodata.__func__.9881
                0x000000000000afc3       0x14 kernel/libkernel.a(mutex.c.obj)
 .rodata.__func__.9924
                0x000000000000afd7       0x16 kernel/libkernel.a(mutex.c.obj)
 .rodata.z_mrsh_k_queue_init.str1.1
                0x000000000000afed       0x27 kernel/libkernel.a(queue.c.obj)
 .rodata.__func__.10022
                0x000000000000afed       0x13 kernel/libkernel.a(queue.c.obj)
 .rodata.__func__.10059
                0x000000000000b000       0x18 kernel/libkernel.a(queue.c.obj)
 .rodata.__func__.10087
                0x000000000000b018       0x19 kernel/libkernel.a(queue.c.obj)
 .rodata.__func__.10115
                0x000000000000b031       0x19 kernel/libkernel.a(queue.c.obj)
 .rodata.__func__.9842
                0x000000000000b04a       0x14 kernel/libkernel.a(queue.c.obj)
 .rodata.__func__.9878
                0x000000000000b05e       0x1b kernel/libkernel.a(queue.c.obj)
 .rodata.__func__.9932
                0x000000000000b079       0x1c kernel/libkernel.a(queue.c.obj)
 .rodata.__func__.9967
                0x000000000000b095       0x1d kernel/libkernel.a(queue.c.obj)
 .rodata.z_mrsh_k_thread_resume.str1.1
                0x000000000000b0b2       0x27 kernel/libkernel.a(sched.c.obj)
 .rodata.z_mrsh_k_thread_priority_set.str1.1
                0x000000000000b0b2       0x7e kernel/libkernel.a(sched.c.obj)
 .rodata.z_mrsh_k_thread_abort.str1.1
                0x000000000000b130       0x36 kernel/libkernel.a(sched.c.obj)
 .rodata.__func__.10008
                0x000000000000b166       0x17 kernel/libkernel.a(sched.c.obj)
 .rodata.__func__.10249
                0x000000000000b17d       0x1d kernel/libkernel.a(sched.c.obj)
 .rodata.__func__.10283
                0x000000000000b19a       0x1d kernel/libkernel.a(sched.c.obj)
 .rodata.__func__.10415
                0x000000000000b1b7       0x10 kernel/libkernel.a(sched.c.obj)
 .rodata.__func__.10531
                0x000000000000b1c7       0x16 kernel/libkernel.a(sched.c.obj)
 .rodata.__func__.9977
                0x000000000000b1dd       0x18 kernel/libkernel.a(sched.c.obj)
 .rodata.z_vrfy_k_sem_init.str1.1
                0x000000000000b1f5       0x27 kernel/libkernel.a(sem.c.obj)
 .rodata.__func__.9837
                0x000000000000b1f5       0x12 kernel/libkernel.a(sem.c.obj)
 .rodata.__func__.9877
                0x000000000000b207       0x12 kernel/libkernel.a(sem.c.obj)
 .rodata.__func__.9913
                0x000000000000b219       0x12 kernel/libkernel.a(sem.c.obj)
 .rodata.__func__.9950
                0x000000000000b22b       0x13 kernel/libkernel.a(sem.c.obj)
 .rodata.__func__.9977
                0x000000000000b23e       0x17 kernel/libkernel.a(sem.c.obj)
 .rodata.z_mrsh_k_thread_start.str1.1
                0x000000000000b255       0x27 kernel/libkernel.a(thread.c.obj)
 .rodata.z_vrfy_k_thread_create.str1.1
                0x000000000000b255      0x146 kernel/libkernel.a(thread.c.obj)
 .rodata.z_mrsh_k_thread_create.str1.1
                0x000000000000b39b       0x4b kernel/libkernel.a(thread.c.obj)
 .rodata.__func__.10003
                0x000000000000b39b       0x16 kernel/libkernel.a(thread.c.obj)
 .rodata.__func__.10075
                0x000000000000b3b1       0x17 kernel/libkernel.a(thread.c.obj)
 .rodata.__func__.10197
                0x000000000000b3c8       0x17 kernel/libkernel.a(thread.c.obj)
 .rodata.__func__.10273
                0x000000000000b3df       0x17 kernel/libkernel.a(thread.c.obj)
 .rodata.__func__.10301
                0x000000000000b3f6       0x28 kernel/libkernel.a(thread.c.obj)
 .rodata.__func__.10329
                0x000000000000b41e       0x26 kernel/libkernel.a(thread.c.obj)
 .rodata.z_mrsh_k_uptime_ticks.str1.1
                0x000000000000b444       0x4c kernel/libkernel.a(timeout.c.obj)
 .rodata.__func__.10002
                0x000000000000b444       0x16 kernel/libkernel.a(timeout.c.obj)
 .rodata.z_mrsh_k_timer_start.str1.1
                0x000000000000b45a       0x27 kernel/libkernel.a(timer.c.obj)
 .rodata.__func__.10021
                0x000000000000b45a       0x1d kernel/libkernel.a(timer.c.obj)
 .rodata.__func__.10049
                0x000000000000b477       0x1d kernel/libkernel.a(timer.c.obj)
 .rodata.__func__.10078
                0x000000000000b494       0x1d kernel/libkernel.a(timer.c.obj)
 .rodata.__func__.9849
                0x000000000000b4b1       0x15 kernel/libkernel.a(timer.c.obj)
 .rodata.__func__.9899
                0x000000000000b4c6       0x14 kernel/libkernel.a(timer.c.obj)
 .rodata.__func__.9931
                0x000000000000b4da       0x1a kernel/libkernel.a(timer.c.obj)
 .rodata.__func__.9965
                0x000000000000b4f4       0x1b kernel/libkernel.a(timer.c.obj)
 .rodata.__func__.9993
                0x000000000000b50f       0x1f kernel/libkernel.a(timer.c.obj)
 .rodata.z_mrsh_k_futex_wake.str1.1
                0x000000000000b52e       0x4c kernel/libkernel.a(futex.c.obj)
 .rodata.__func__.9859
                0x000000000000b52e       0x14 kernel/libkernel.a(futex.c.obj)
 .rodata.__func__.9901
                0x000000000000b542       0x14 kernel/libkernel.a(futex.c.obj)
 .rodata.handler_no_syscall.str1.1
                0x000000000000b556       0x1a kernel/libkernel.a(userspace.c.obj)
 .rodata.handler_bad_syscall.str1.1
                0x000000000000b570       0x1f kernel/libkernel.a(userspace.c.obj)
 .rodata.otype_to_str.str1.1
                0x000000000000b58f        0x2 kernel/libkernel.a(userspace.c.obj)
 .rodata.z_dump_object_error.str1.1
                0x000000000000b591       0x83 kernel/libkernel.a(userspace.c.obj)
 .rodata.z_user_alloc_from_copy.str1.1
                0x000000000000b614       0x29 kernel/libkernel.a(userspace.c.obj)
                                         0x74 (size before relaxing)
 .rodata.z_user_string_alloc_copy.str1.1
                0x000000000000b63d       0x19 kernel/libkernel.a(userspace.c.obj)
                                         0x22 (size before relaxing)
 .rodata.str1.1
                0x000000000000b656      0x1a2 kernel/libkernel.a(userspace.c.obj)
                                        0x1b8 (size before relaxing)
 .rodata.__func__.10202
                0x000000000000b7f8        0xa kernel/libkernel.a(userspace.c.obj)
 .rodata.z_mrsh_k_object_access_grant.str1.1
                0x000000000000b802       0x31 kernel/libkernel.a(userspace_handler.c.obj)
                                         0x58 (size before relaxing)
 .rodata.z_mrsh_k_object_alloc.str1.1
                0x000000000000b833       0x36 kernel/libkernel.a(userspace_handler.c.obj)
 .rodata.__func__.9484
                0x000000000000b869       0x1d kernel/libkernel.a(userspace_handler.c.obj)
 .rodata.__func__.9525
                0x000000000000b886       0x18 kernel/libkernel.a(userspace_handler.c.obj)
 .rodata.__func__.9552
                0x000000000000b89e       0x16 kernel/libkernel.a(userspace_handler.c.obj)
 *(SORT_BY_ALIGNMENT(.gnu.linkonce.r.*))
 *(SORT_BY_ALIGNMENT(.kobject_data.rodata*))
                0x000000000000b8b4                . = ALIGN (0x4)
                0x000000000000b8b4                _image_rodata_end = .
                0x000000000000b8c0                . = ALIGN (_region_min_align)
                0x0000000000010000                . = ALIGN ((0x1 << LOG2CEIL ((_image_rodata_end - _image_rom_start))))
                0x0000000000010000                _image_rom_end = .
                0x0000000020000000                . = 0x20000000
                0x0000000020000000                . = ALIGN (_region_min_align)
                0x0000000020000000                _image_ram_start = .

.ramfunc        0x0000000020000000        0x0 load address 0x000000000000b8b4
                0x0000000020000000                . = ALIGN (_region_min_align)
                0x0000000020000000                . = ALIGN ((0x1 << LOG2CEIL (_ramfunc_ram_size)))
                0x0000000020000000                _ramfunc_ram_start = .
 *(SORT_BY_ALIGNMENT(.ramfunc))
 *(SORT_BY_ALIGNMENT(.ramfunc.*))
                0x0000000020000000                . = ALIGN (_region_min_align)
                0x0000000020000000                . = ALIGN ((0x1 << LOG2CEIL (_ramfunc_ram_size)))
                0x0000000020000000                _ramfunc_ram_end = .
                0x0000000000000000                _ramfunc_ram_size = (_ramfunc_ram_end - _ramfunc_ram_start)
                0x000000000000b8b4                _ramfunc_rom_start = LOADADDR (.ramfunc)

app_smem        0x0000000020000000        0x0 load address 0x000000000000b8b4
                0x0000000020000000                . = ALIGN (_region_min_align)
                0x0000000020000000                _app_smem_start = .
                0x0000000020000000                . = ALIGN (_region_min_align)
                0x0000000020000000                _app_smem_end = .
                0x0000000000000000                _app_smem_size = (_app_smem_end - _app_smem_start)
                0x000000000000b8b4                _app_smem_rom_start = LOADADDR (app_smem)

bss             0x0000000020000000     0x3cd1
                0x0000000020000000                . = ALIGN (0x4)
                0x0000000020000000                __bss_start = .
                0x0000000020000000                __kernel_ram_start = .
 *(SORT_BY_ALIGNMENT(.bss))
 *(SORT_BY_ALIGNMENT(.bss.*))
 .bss.log_process_thread_timer
                0x0000000020000000       0x30 libzephyr.a(log_core.c.obj)
 .bss.curr_tick
                0x0000000020000030        0x8 kernel/libkernel.a(timeout.c.obj)
 .bss.dev       0x0000000020000038        0x4 ../app/libapp.a(led.c.obj)
                0x0000000020000038                dev
 .bss.blinky_thread
                0x000000002000003c       0x90 ../app/libapp.a(main.c.obj)
                0x000000002000003c                blinky_thread
 .bss.buffered_cnt
                0x00000000200000cc        0x4 libzephyr.a(log_core.c.obj)
 .bss.dropped_cnt
                0x00000000200000d0        0x4 libzephyr.a(log_core.c.obj)
 .bss.initialized
                0x00000000200000d4        0x4 libzephyr.a(log_core.c.obj)
 .bss.list      0x00000000200000d8        0x8 libzephyr.a(log_core.c.obj)
 .bss.log_strdup_pool
                0x00000000200000e0       0x1c libzephyr.a(log_core.c.obj)
                0x00000000200000e0                log_strdup_pool
 .bss.logging_thread
                0x00000000200000fc       0x90 libzephyr.a(log_core.c.obj)
                0x00000000200000fc                logging_thread
 .bss.proc_tid  0x000000002000018c        0x4 libzephyr.a(log_core.c.obj)
 .bss.log_msg_pool
                0x0000000020000190       0x1c libzephyr.a(log_msg.c.obj)
                0x0000000020000190                log_msg_pool
 .bss.freq      0x00000000200001ac        0x4 libzephyr.a(log_output.c.obj)
 .bss.timestamp_div
                0x00000000200001b0        0x4 libzephyr.a(log_output.c.obj)
 .bss.backend_cb_log_backend_uart
                0x00000000200001b4        0x8 libzephyr.a(log_backend_uart.c.obj)
 .bss.log_output_control_block
                0x00000000200001bc        0xc libzephyr.a(log_backend_uart.c.obj)
 .bss.backend_cb_log_backend_rtt
                0x00000000200001c8        0x8 libzephyr.a(log_backend_rtt.c.obj)
 .bss.log_output_control_block
                0x00000000200001d0        0xc libzephyr.a(log_backend_rtt.c.obj)
 .bss.uart_console_dev
                0x00000000200001dc        0x4 libzephyr.a(uart_console.c.obj)
 .bss.data      0x00000000200001e0       0x18 libzephyr.a(nrf_power_clock.c.obj)
 .bss.last_count
                0x00000000200001f8        0x4 libzephyr.a(nrf_rtc_timer.c.obj)
 .bss._SEGGER_RTT
                0x00000000200001fc       0xa8 libzephyr.a(SEGGER_RTT.c.obj)
                0x00000000200001fc                _SEGGER_RTT
 .bss.gpio_nrfx_p0_data
                0x00000000200002a4       0x20 drivers/gpio/libdrivers__gpio.a(gpio_nrfx.c.obj)
 .bss.gpio_nrfx_p1_data
                0x00000000200002c4       0x20 drivers/gpio/libdrivers__gpio.a(gpio_nrfx.c.obj)
 .bss.poll_out_lock.9854
                0x00000000200002e4        0x4 drivers/serial/libdrivers__serial.a(uart_nrfx_uart.c.obj)
 .bss.z_idle_threads
                0x00000000200002e8       0x90 kernel/libkernel.a(init.c.obj)
                0x00000000200002e8                z_idle_threads
 .bss.z_main_thread
                0x0000000020000378       0x90 kernel/libkernel.a(init.c.obj)
                0x0000000020000378                z_main_thread
 .bss._kernel   0x0000000020000408       0x30 kernel/libkernel.a(sched.c.obj)
                0x0000000020000408                _kernel
 .bss.pending_current
                0x0000000020000438        0x4 kernel/libkernel.a(sched.c.obj)
 .bss.slice_max_prio
                0x000000002000043c        0x4 kernel/libkernel.a(sched.c.obj)
 .bss.slice_time
                0x0000000020000440        0x4 kernel/libkernel.a(sched.c.obj)
 .bss.announce_remaining
                0x0000000020000444        0x4 kernel/libkernel.a(timeout.c.obj)
 .bss.kheap_poolheap__heap_mem_pool
                0x0000000020000448     0x2460 kernel/libkernel.a(mempool.c.obj)
                0x0000000020000448                kheap_poolheap__heap_mem_pool
 .bss.blinky_stack
                0x00000000200028a8     0x1000 ../app/libapp.a(main.c.obj)
                0x00000000200028a8                blinky_stack
 .bss.backend_attached
                0x00000000200038a8        0x1 libzephyr.a(log_core.c.obj)
 .bss.panic_mode
                0x00000000200038a9        0x1 libzephyr.a(log_core.c.obj)
 .bss.buf       0x00000000200038aa        0x1 libzephyr.a(log_backend_uart.c.obj)
 .bss.char_buf  0x00000000200038ab       0x10 libzephyr.a(log_backend_rtt.c.obj)
 .bss.host_present
                0x00000000200038bb        0x1 libzephyr.a(log_backend_rtt.c.obj)
 .bss.panic_mode
                0x00000000200038bc        0x1 libzephyr.a(log_backend_rtt.c.obj)
 .bss._acDownBuffer
                0x00000000200038bd       0x10 libzephyr.a(SEGGER_RTT.c.obj)
 .bss._acUpBuffer
                0x00000000200038cd      0x400 libzephyr.a(SEGGER_RTT.c.obj)
 .bss.static_regions_num
                0x0000000020003ccd        0x1 arch/arch/arm/core/aarch32/cortex_m/mpu/libarch__arm__core__aarch32__cortex_m__mpu.a(arm_mpu.c.obj)
 .bss.gpio_initialized.10091
                0x0000000020003cce        0x1 drivers/gpio/libdrivers__gpio.a(gpio_nrfx.c.obj)
 .bss.z_sys_post_kernel
                0x0000000020003ccf        0x1 kernel/libkernel.a(init.c.obj)
                0x0000000020003ccf                z_sys_post_kernel
 .bss.lock      0x0000000020003cd0        0x0 kernel/libkernel.a(mem_slab.c.obj)
 .bss.lock      0x0000000020003cd0        0x0 kernel/libkernel.a(mutex.c.obj)
 .bss.sched_spinlock
                0x0000000020003cd0        0x0 kernel/libkernel.a(sched.c.obj)
 .bss.lock      0x0000000020003cd0        0x0 kernel/libkernel.a(sem.c.obj)
 .bss.lock      0x0000000020003cd0        0x0 kernel/libkernel.a(timer.c.obj)
 .bss.max_partitions
                0x0000000020003cd0        0x1 kernel/libkernel.a(mem_domain.c.obj)
 *(SORT_BY_ALIGNMENT(COMMON))
 *(SORT_BY_ALIGNMENT(.kernel_bss.*))
                0x0000000020003cd4                __bss_end = ALIGN (0x4)

noinit          0x0000000020004000     0x16a0
 *(SORT_BY_ALIGNMENT(.noinit))
 *(SORT_BY_ALIGNMENT(.noinit.*))
 .noinit."/home/rgujju/Documents/Embedded/frameworks/zephyrproject/zephyr-rg/kernel/init.c".4
                0x0000000020004000      0x800 kernel/libkernel.a(init.c.obj)
                0x0000000020004000                z_interrupt_stacks
 .noinit."/home/rgujju/Documents/Embedded/frameworks/zephyrproject/zephyr-rg/subsys/logging/log_core.c".1
                0x0000000020004800      0x400 libzephyr.a(log_core.c.obj)
                0x0000000020004800                logging_stack
 .noinit."/home/rgujju/Documents/Embedded/frameworks/zephyrproject/zephyr-rg/kernel/init.c".2
                0x0000000020004c00      0x400 kernel/libkernel.a(init.c.obj)
                0x0000000020004c00                z_main_stack
 .noinit."/home/rgujju/Documents/Embedded/frameworks/zephyrproject/zephyr-rg/kernel/init.c".3
                0x0000000020005000      0x200 kernel/libkernel.a(init.c.obj)
 .noinit."/home/rgujju/Documents/Embedded/frameworks/zephyrproject/zephyr-rg/subsys/logging/log_core.c".0
                0x0000000020005200       0xa0 libzephyr.a(log_core.c.obj)
 .noinit."/home/rgujju/Documents/Embedded/frameworks/zephyrproject/zephyr-rg/subsys/logging/log_msg.c".0
                0x00000000200052a0      0x400 libzephyr.a(log_msg.c.obj)
 *(SORT_BY_ALIGNMENT(.kernel_noinit.*))

datas           0x00000000200056a0       0x34 load address 0x000000000000b8b4
                0x00000000200056a0                __data_ram_start = .
 *(SORT_BY_ALIGNMENT(.data))
 *(SORT_BY_ALIGNMENT(.data.*))
 .data._char_out
                0x00000000200056a0        0x4 libzephyr.a(printk.c.obj)
                0x00000000200056a0                _char_out
 .data.timestamp_func
                0x00000000200056a4        0x4 libzephyr.a(log_core.c.obj)
 .data._stdout_hook
                0x00000000200056a8        0x4 lib/libc/minimal/liblib__libc__minimal.a(stdout_console.c.obj)
 .data.uart_nrfx_uart0_data
                0x00000000200056ac        0x8 drivers/serial/libdrivers__serial.a(uart_nrfx_uart.c.obj)
 .data.uarte_1_data
                0x00000000200056b4       0x10 drivers/serial/libdrivers__serial.a(uart_nrfx_uarte.c.obj)
 .data.SystemCoreClock
                0x00000000200056c4        0x4 ../modules/nordic/lib..__modules__hal__nordic.a(system_nrf52840.c.obj)
                0x00000000200056c4                SystemCoreClock
 .data.timeout_list
                0x00000000200056c8        0x8 kernel/libkernel.a(timeout.c.obj)
 .data._heap_mem_pool
                0x00000000200056d0        0x4 kernel/libkernel.a(mempool.c.obj)
                0x00000000200056d0                _heap_mem_pool
 *(SORT_BY_ALIGNMENT(.kernel.*))
                0x000000000000b8b4                __data_rom_start = LOADADDR (datas)

devices         0x00000000200056d4       0x60 load address 0x000000000000b8e8
                0x00000000200056d4                __device_start = .
                0x00000000200056d4                __device_PRE_KERNEL_1_start = .
 *(SORT_BY_NAME(SORT_BY_ALIGNMENT(.device_PRE_KERNEL_1[0-9])))
 *(SORT_BY_NAME(SORT_BY_ALIGNMENT(.device_PRE_KERNEL_1[1-9][0-9])))
 .device_PRE_KERNEL_150
                0x00000000200056d4       0x10 libzephyr.a(nrf_power_clock.c.obj)
 .device_PRE_KERNEL_150
                0x00000000200056e4       0x10 drivers/serial/libdrivers__serial.a(uart_nrfx_uart.c.obj)
 .device_PRE_KERNEL_150
                0x00000000200056f4       0x10 drivers/serial/libdrivers__serial.a(uart_nrfx_uarte.c.obj)
                0x0000000020005704                __device_PRE_KERNEL_2_start = .
 *(SORT_BY_NAME(SORT_BY_ALIGNMENT(.device_PRE_KERNEL_2[0-9])))
 .device_PRE_KERNEL_20
                0x0000000020005704       0x10 libzephyr.a(sys_clock_init.c.obj)
 *(SORT_BY_NAME(SORT_BY_ALIGNMENT(.device_PRE_KERNEL_2[1-9][0-9])))
                0x0000000020005714                __device_POST_KERNEL_start = .
 *(SORT_BY_NAME(SORT_BY_ALIGNMENT(.device_POST_KERNEL[0-9])))
 *(SORT_BY_NAME(SORT_BY_ALIGNMENT(.device_POST_KERNEL[1-9][0-9])))
 .device_POST_KERNEL40
                0x0000000020005714       0x20 drivers/gpio/libdrivers__gpio.a(gpio_nrfx.c.obj)
                0x0000000020005734                __device_APPLICATION_start = .
 *(SORT_BY_NAME(SORT_BY_ALIGNMENT(.device_APPLICATION[0-9])))
 *(SORT_BY_NAME(SORT_BY_ALIGNMENT(.device_APPLICATION[1-9][0-9])))
                0x0000000020005734                __device_SMP_start = .
 *(SORT_BY_NAME(SORT_BY_ALIGNMENT(.device_SMP[0-9])))
 *(SORT_BY_NAME(SORT_BY_ALIGNMENT(.device_SMP[1-9][0-9])))
                0x0000000020005734                __device_end = .

initshell       0x0000000020005734        0x0 load address 0x000000000000b948
                0x0000000020005734                __shell_module_start = .
 *(SORT_BY_ALIGNMENT(.shell_module_*))
                0x0000000020005734                __shell_module_end = .
                0x0000000020005734                __shell_cmd_start = .
 *(SORT_BY_ALIGNMENT(.shell_cmd_*))
                0x0000000020005734                __shell_cmd_end = .

log_dynamic_sections
                0x0000000020005734        0x0 load address 0x000000000000b948
                0x0000000020005734                __log_dynamic_start = .
 *(SORT_BY_NAME(SORT_BY_ALIGNMENT(.log_dynamic_*)))
                0x0000000020005734                __log_dynamic_end = .

_static_thread_area
                0x0000000020005734        0x0 load address 0x000000000000b948
                0x0000000020005734                __static_thread_data_list_start = .
 *(SORT_BY_NAME(SORT_BY_ALIGNMENT(.__static_thread_data.static.*)))
                0x0000000020005734                __static_thread_data_list_end = .
                0x0000000020005734                _static_kernel_objects_begin = .

_k_timer_area   0x0000000020005734        0x0 load address 0x000000000000b948
                0x0000000020005734                _k_timer_list_start = .
 *(SORT_BY_ALIGNMENT(._k_timer.static.*))
                0x0000000020005734                _k_timer_list_end = .

_k_mem_slab_area
                0x0000000020005734        0x0 load address 0x000000000000b948
                0x0000000020005734                _k_mem_slab_list_start = .
 *(SORT_BY_ALIGNMENT(._k_mem_slab.static.*))
                0x0000000020005734                _k_mem_slab_list_end = .

_k_mem_pool_area
                0x0000000020005734        0x0 load address 0x000000000000b948
                0x0000000020005734                _k_mem_pool_list_start = .
 *(SORT_BY_ALIGNMENT(._k_mem_pool.static.*))
                0x0000000020005734                _k_mem_pool_list_end = .

_k_heap_area    0x0000000020005734       0x14 load address 0x000000000000b948
                0x0000000020005734                _k_heap_list_start = .
 *(SORT_BY_ALIGNMENT(._k_heap.static.*))
 ._k_heap.static.poolheap__heap_mem_pool
                0x0000000020005734       0x14 kernel/libkernel.a(mempool.c.obj)
                0x0000000020005734                poolheap__heap_mem_pool
                0x0000000020005748                _k_heap_list_end = .

_k_sem_area     0x0000000020005748       0x10 load address 0x000000000000b95c
                0x0000000020005748                _k_sem_list_start = .
 *(SORT_BY_ALIGNMENT(._k_sem.static.*))
 ._k_sem.static.log_process_thread_sem
                0x0000000020005748       0x10 libzephyr.a(log_core.c.obj)
                0x0000000020005748                log_process_thread_sem
 *(SORT_BY_ALIGNMENT(._sys_sem.static.*))
                0x0000000020005758                _k_sem_list_end = .

_k_mutex_area   0x0000000020005758       0x28 load address 0x000000000000b96c
                0x0000000020005758                _k_mutex_list_start = .
 *(SORT_BY_ALIGNMENT(._k_mutex.static.*))
 ._k_mutex.static.fdtable_lock
                0x0000000020005758       0x14 libzephyr.a(fdtable.c.obj)
 ._k_mutex.static.rtt_term_mutex
                0x000000002000576c       0x14 libzephyr.a(SEGGER_RTT_zephyr.c.obj)
                0x000000002000576c                rtt_term_mutex
                0x0000000020005780                _k_mutex_list_end = .

_k_queue_area   0x0000000020005780        0x0 load address 0x000000000000b994
                0x0000000020005780                _k_queue_list_start = .
 *(SORT_BY_ALIGNMENT(._k_queue.static.*))
 *(SORT_BY_ALIGNMENT(._k_fifo.static.*))
 *(SORT_BY_ALIGNMENT(._k_lifo.static.*))
                0x0000000020005780                _k_queue_list_end = .

_k_stack_area   0x0000000020005780        0x0 load address 0x000000000000b994
                0x0000000020005780                _k_stack_list_start = .
 *(SORT_BY_ALIGNMENT(._k_stack.static.*))
                0x0000000020005780                _k_stack_list_end = .

_k_msgq_area    0x0000000020005780        0x0 load address 0x000000000000b994
                0x0000000020005780                _k_msgq_list_start = .
 *(SORT_BY_ALIGNMENT(._k_msgq.static.*))
                0x0000000020005780                _k_msgq_list_end = .

_k_mbox_area    0x0000000020005780        0x0 load address 0x000000000000b994
                0x0000000020005780                _k_mbox_list_start = .
 *(SORT_BY_ALIGNMENT(._k_mbox.static.*))
                0x0000000020005780                _k_mbox_list_end = .

_k_pipe_area    0x0000000020005780        0x0 load address 0x000000000000b994
                0x0000000020005780                _k_pipe_list_start = .
 *(SORT_BY_ALIGNMENT(._k_pipe.static.*))
                0x0000000020005780                _k_pipe_list_end = .

_net_buf_pool_area
                0x0000000020005780        0x0 load address 0x000000000000b994
                0x0000000020005780                _net_buf_pool_list = .
 *(SORT_BY_NAME(SORT_BY_ALIGNMENT(._net_buf_pool.static.*)))

net_if          0x0000000020005780        0x0 load address 0x000000000000b994
                0x0000000020005780                __net_if_start = .
 *(SORT_BY_ALIGNMENT(.net_if.*))
 *(SORT_BY_NAME(SORT_BY_ALIGNMENT(.net_if.*)))
                0x0000000020005780                __net_if_end = .

net_if_dev      0x0000000020005780        0x0 load address 0x000000000000b994
                0x0000000020005780                __net_if_dev_start = .
 *(SORT_BY_ALIGNMENT(.net_if_dev.*))
 *(SORT_BY_NAME(SORT_BY_ALIGNMENT(.net_if_dev.*)))
                0x0000000020005780                __net_if_dev_end = .

net_l2_data     0x0000000020005780        0x0 load address 0x000000000000b994
                0x0000000020005780                __net_l2_data_start = .
 *(SORT_BY_ALIGNMENT(.net_l2.data))
 *(SORT_BY_NAME(SORT_BY_ALIGNMENT(.net_l2.data*)))
                0x0000000020005780                __net_l2_data_end = .
                0x0000000020005780                _static_kernel_objects_end = .

kobject_data
 *(SORT_BY_ALIGNMENT(.kobject_data.data*))

priv_stacks_noinit
                0x0000000020005780        0x0 load address 0x000000000000b994
                0x0000000020005780                z_priv_stacks_ram_start = .
 *(SORT_BY_ALIGNMENT(.priv_stacks.noinit))
                0x0000000020005780                z_priv_stacks_ram_end = .
                0x0000000020005780                __data_ram_end = .
                0x0000000020005780                _image_ram_end = .
                0x0000000020005780                _end = .
                0x0000000020040000                __kernel_ram_end = 0x20040000
                0x0000000000040000                __kernel_ram_size = (__kernel_ram_end - __kernel_ram_start)

.intList        0x0000000020040000       0x38
 *(SORT_BY_ALIGNMENT(.irq_info))
 .irq_info      0x0000000020040000        0x8 arch/common/libarch__common.a(isr_tables.c.obj)
                0x0000000020040000                _iheader
 *(SORT_BY_ALIGNMENT(.intList))
 .intList       0x0000000020040008       0x10 libzephyr.a(nrf_power_clock.c.obj)
 .intList       0x0000000020040018       0x10 libzephyr.a(nrf_rtc_timer.c.obj)
 .intList       0x0000000020040028       0x10 drivers/gpio/libdrivers__gpio.a(gpio_nrfx.c.obj)

.stab
 *(SORT_BY_ALIGNMENT(.stab))

.stabstr
 *(SORT_BY_ALIGNMENT(.stabstr))

.stab.excl
 *(SORT_BY_ALIGNMENT(.stab.excl))

.stab.exclstr
 *(SORT_BY_ALIGNMENT(.stab.exclstr))

.stab.index
 *(SORT_BY_ALIGNMENT(.stab.index))

.stab.indexstr
 *(SORT_BY_ALIGNMENT(.stab.indexstr))

.gnu.build.attributes
 *(SORT_BY_ALIGNMENT(.gnu.build.attributes) SORT_BY_ALIGNMENT(.gnu.build.attributes.*))

.comment        0x0000000000000000       0x32
 *(SORT_BY_ALIGNMENT(.comment))
 .comment       0x0000000000000000       0x32 ../app/libapp.a(led.c.obj)
                                         0x33 (size before relaxing)
 .comment       0x0000000000000032       0x33 ../app/libapp.a(main.c.obj)
 .comment       0x0000000000000032       0x33 libzephyr.a(fdtable.c.obj)
 .comment       0x0000000000000032       0x33 libzephyr.a(printk.c.obj)
 .comment       0x0000000000000032       0x33 libzephyr.a(thread_entry.c.obj)
 .comment       0x0000000000000032       0x33 libzephyr.a(heap.c.obj)
 .comment       0x0000000000000032       0x33 libzephyr.a(mutex.c.obj)
 .comment       0x0000000000000032       0x33 libzephyr.a(configs.c.obj)
 .comment       0x0000000000000032       0x33 libzephyr.a(log_list.c.obj)
 .comment       0x0000000000000032       0x33 libzephyr.a(log_core.c.obj)
 .comment       0x0000000000000032       0x33 libzephyr.a(log_msg.c.obj)
 .comment       0x0000000000000032       0x33 libzephyr.a(log_output.c.obj)
 .comment       0x0000000000000032       0x33 libzephyr.a(log_backend_uart.c.obj)
 .comment       0x0000000000000032       0x33 libzephyr.a(log_backend_rtt.c.obj)
 .comment       0x0000000000000032       0x33 libzephyr.a(power.c.obj)
 .comment       0x0000000000000032       0x33 libzephyr.a(uart_console.c.obj)
 .comment       0x0000000000000032       0x33 libzephyr.a(nrf_power_clock.c.obj)
 .comment       0x0000000000000032       0x33 libzephyr.a(sys_clock_init.c.obj)
 .comment       0x0000000000000032       0x33 libzephyr.a(nrf_rtc_timer.c.obj)
 .comment       0x0000000000000032       0x33 libzephyr.a(SEGGER_RTT.c.obj)
 .comment       0x0000000000000032       0x33 libzephyr.a(SEGGER_RTT_zephyr.c.obj)
 .comment       0x0000000000000032       0x33 arch/common/libarch__common.a(isr_tables.c.obj)
 .comment       0x0000000000000032       0x33 arch/arch/arm/core/aarch32/libarch__arm__core__aarch32.a(swap.c.obj)
 .comment       0x0000000000000032       0x33 arch/arch/arm/core/aarch32/libarch__arm__core__aarch32.a(irq_manage.c.obj)
 .comment       0x0000000000000032       0x33 arch/arch/arm/core/aarch32/libarch__arm__core__aarch32.a(thread.c.obj)
 .comment       0x0000000000000032       0x33 arch/arch/arm/core/aarch32/libarch__arm__core__aarch32.a(fatal.c.obj)
 .comment       0x0000000000000032       0x33 arch/arch/arm/core/aarch32/libarch__arm__core__aarch32.a(nmi.c.obj)
 .comment       0x0000000000000032       0x33 arch/arch/arm/core/aarch32/libarch__arm__core__aarch32.a(prep_c.c.obj)
 .comment       0x0000000000000032       0x33 arch/arch/arm/core/aarch32/cortex_m/libarch__arm__core__aarch32__cortex_m.a(fault.c.obj)
 .comment       0x0000000000000032       0x33 arch/arch/arm/core/aarch32/cortex_m/libarch__arm__core__aarch32__cortex_m.a(irq_init.c.obj)
 .comment       0x0000000000000032       0x33 arch/arch/arm/core/aarch32/cortex_m/libarch__arm__core__aarch32__cortex_m.a(thread_abort.c.obj)
 .comment       0x0000000000000032       0x33 arch/arch/arm/core/aarch32/cortex_m/mpu/libarch__arm__core__aarch32__cortex_m__mpu.a(arm_core_mpu.c.obj)
 .comment       0x0000000000000032       0x33 arch/arch/arm/core/aarch32/cortex_m/mpu/libarch__arm__core__aarch32__cortex_m__mpu.a(arm_mpu.c.obj)
 .comment       0x0000000000000032       0x33 lib/libc/minimal/liblib__libc__minimal.a(string.c.obj)
 .comment       0x0000000000000032       0x33 lib/libc/minimal/liblib__libc__minimal.a(stdout_console.c.obj)
 .comment       0x0000000000000032       0x33 soc/arm/common/cortex_m/libsoc__arm__common__cortex_m.a(arm_mpu_regions.c.obj)
 .comment       0x0000000000000032       0x33 soc/arm/nordic_nrf/nrf52/libsoc__arm__nordic_nrf__nrf52.a(soc.c.obj)
 .comment       0x0000000000000032       0x33 drivers/gpio/libdrivers__gpio.a(gpio_nrfx.c.obj)
 .comment       0x0000000000000032       0x33 drivers/gpio/libdrivers__gpio.a(gpio_handlers.c.obj)
 .comment       0x0000000000000032       0x33 drivers/serial/libdrivers__serial.a(uart_nrfx_uart.c.obj)
 .comment       0x0000000000000032       0x33 drivers/serial/libdrivers__serial.a(uart_nrfx_uarte.c.obj)
 .comment       0x0000000000000032       0x33 drivers/serial/libdrivers__serial.a(uart_handlers.c.obj)
 .comment       0x0000000000000032       0x33 ../modules/nordic/lib..__modules__hal__nordic.a(system_nrf52840.c.obj)
 .comment       0x0000000000000032       0x33 ../modules/nordic/lib..__modules__hal__nordic.a(nrfx_glue.c.obj)
 .comment       0x0000000000000032       0x33 kernel/libkernel.a(device.c.obj)
 .comment       0x0000000000000032       0x33 kernel/libkernel.a(errno.c.obj)
 .comment       0x0000000000000032       0x33 kernel/libkernel.a(fatal.c.obj)
 .comment       0x0000000000000032       0x33 kernel/libkernel.a(idle.c.obj)
 .comment       0x0000000000000032       0x33 kernel/libkernel.a(init.c.obj)
 .comment       0x0000000000000032       0x33 kernel/libkernel.a(mem_slab.c.obj)
 .comment       0x0000000000000032       0x33 kernel/libkernel.a(mutex.c.obj)
 .comment       0x0000000000000032       0x33 kernel/libkernel.a(queue.c.obj)
 .comment       0x0000000000000032       0x33 kernel/libkernel.a(sched.c.obj)
 .comment       0x0000000000000032       0x33 kernel/libkernel.a(sem.c.obj)
 .comment       0x0000000000000032       0x33 kernel/libkernel.a(thread.c.obj)
 .comment       0x0000000000000032       0x33 kernel/libkernel.a(timeout.c.obj)
 .comment       0x0000000000000032       0x33 kernel/libkernel.a(timer.c.obj)
 .comment       0x0000000000000032       0x33 kernel/libkernel.a(futex.c.obj)
 .comment       0x0000000000000032       0x33 kernel/libkernel.a(mem_domain.c.obj)
 .comment       0x0000000000000032       0x33 kernel/libkernel.a(userspace.c.obj)
 .comment       0x0000000000000032       0x33 kernel/libkernel.a(mempool.c.obj)
 .comment       0x0000000000000032       0x33 kernel/libkernel.a(userspace_handler.c.obj)
 .comment       0x0000000000000032       0x33 kernel/libkernel.a(kheap.c.obj)
 .comment       0x0000000000000032       0x33 CMakeFiles/offsets.dir/arch/arm/core/offsets/offsets.c.obj

.debug
 *(SORT_BY_ALIGNMENT(.debug))

.line
 *(SORT_BY_ALIGNMENT(.line))

.debug_srcinfo
 *(SORT_BY_ALIGNMENT(.debug_srcinfo))

.debug_sfnames
 *(SORT_BY_ALIGNMENT(.debug_sfnames))

.debug_aranges  0x0000000000000000     0x19d8
 *(SORT_BY_ALIGNMENT(.debug_aranges))
 .debug_aranges
                0x0000000000000000       0x28 arch/arch/arm/core/aarch32/libarch__arm__core__aarch32.a(swap_helper.S.obj)
 .debug_aranges
                0x0000000000000028       0x30 arch/arch/arm/core/aarch32/libarch__arm__core__aarch32.a(cpu_idle.S.obj)
 .debug_aranges
                0x0000000000000058       0x20 arch/arch/arm/core/aarch32/libarch__arm__core__aarch32.a(nmi_on_reset.S.obj)
 .debug_aranges
                0x0000000000000078       0x20 arch/arch/arm/core/aarch32/libarch__arm__core__aarch32.a(isr_wrapper.S.obj)
 .debug_aranges
                0x0000000000000098       0x30 arch/arch/arm/core/aarch32/libarch__arm__core__aarch32.a(userspace.S.obj)
 .debug_aranges
                0x00000000000000c8       0x20 arch/arch/arm/core/aarch32/cortex_m/libarch__arm__core__aarch32__cortex_m.a(reset.S.obj)
 .debug_aranges
                0x00000000000000e8       0x20 arch/arch/arm/core/aarch32/cortex_m/libarch__arm__core__aarch32__cortex_m.a(fault_s.S.obj)
 .debug_aranges
                0x0000000000000108       0x20 arch/arch/arm/core/aarch32/cortex_m/libarch__arm__core__aarch32__cortex_m.a(exc_exit.S.obj)
 .debug_aranges
                0x0000000000000128       0x58 ../app/libapp.a(led.c.obj)
 .debug_aranges
                0x0000000000000180       0x40 ../app/libapp.a(main.c.obj)
 .debug_aranges
                0x00000000000001c0       0x60 libzephyr.a(fdtable.c.obj)
 .debug_aranges
                0x0000000000000220       0xa0 libzephyr.a(printk.c.obj)
 .debug_aranges
                0x00000000000002c0       0x20 libzephyr.a(thread_entry.c.obj)
 .debug_aranges
                0x00000000000002e0       0x60 libzephyr.a(heap.c.obj)
 .debug_aranges
                0x0000000000000340       0x48 libzephyr.a(mutex.c.obj)
 .debug_aranges
                0x0000000000000388       0x20 libzephyr.a(configs.c.obj)
 .debug_aranges
                0x00000000000003a8       0x38 libzephyr.a(log_list.c.obj)
 .debug_aranges
                0x00000000000003e0      0x1d0 libzephyr.a(log_core.c.obj)
 .debug_aranges
                0x00000000000005b0       0x88 libzephyr.a(log_msg.c.obj)
 .debug_aranges
                0x0000000000000638       0x80 libzephyr.a(log_output.c.obj)
 .debug_aranges
                0x00000000000006b8       0x40 libzephyr.a(log_backend_uart.c.obj)
 .debug_aranges
                0x00000000000006f8       0x50 libzephyr.a(log_backend_rtt.c.obj)
 .debug_aranges
                0x0000000000000748       0x40 libzephyr.a(power.c.obj)
 .debug_aranges
                0x0000000000000788       0x30 libzephyr.a(uart_console.c.obj)
 .debug_aranges
                0x00000000000007b8       0x58 libzephyr.a(nrf_power_clock.c.obj)
 .debug_aranges
                0x0000000000000810       0x40 libzephyr.a(sys_clock_init.c.obj)
 .debug_aranges
                0x0000000000000850       0x50 libzephyr.a(nrf_rtc_timer.c.obj)
 .debug_aranges
                0x00000000000008a0      0x120 libzephyr.a(SEGGER_RTT.c.obj)
 .debug_aranges
                0x00000000000009c0       0x20 libzephyr.a(SEGGER_RTT_zephyr.c.obj)
 .debug_aranges
                0x00000000000009e0       0x18 arch/common/libarch__common.a(isr_tables.c.obj)
 .debug_aranges
                0x00000000000009f8       0x20 arch/arch/arm/core/aarch32/libarch__arm__core__aarch32.a(swap.c.obj)
 .debug_aranges
                0x0000000000000a18       0x48 arch/arch/arm/core/aarch32/libarch__arm__core__aarch32.a(irq_manage.c.obj)
 .debug_aranges
                0x0000000000000a60       0x38 arch/arch/arm/core/aarch32/libarch__arm__core__aarch32.a(thread.c.obj)
 .debug_aranges
                0x0000000000000a98       0x38 arch/arch/arm/core/aarch32/libarch__arm__core__aarch32.a(fatal.c.obj)
 .debug_aranges
                0x0000000000000ad0       0x20 arch/arch/arm/core/aarch32/libarch__arm__core__aarch32.a(nmi.c.obj)
 .debug_aranges
                0x0000000000000af0       0x20 arch/arch/arm/core/aarch32/libarch__arm__core__aarch32.a(prep_c.c.obj)
 .debug_aranges
                0x0000000000000b10       0x48 arch/arch/arm/core/aarch32/cortex_m/libarch__arm__core__aarch32__cortex_m.a(fault.c.obj)
 .debug_aranges
                0x0000000000000b58       0x20 arch/arch/arm/core/aarch32/cortex_m/libarch__arm__core__aarch32__cortex_m.a(irq_init.c.obj)
 .debug_aranges
                0x0000000000000b78       0x20 arch/arch/arm/core/aarch32/cortex_m/libarch__arm__core__aarch32__cortex_m.a(thread_abort.c.obj)
 .debug_aranges
                0x0000000000000b98       0x68 arch/arch/arm/core/aarch32/cortex_m/mpu/libarch__arm__core__aarch32__cortex_m__mpu.a(arm_core_mpu.c.obj)
 .debug_aranges
                0x0000000000000c00       0x70 arch/arch/arm/core/aarch32/cortex_m/mpu/libarch__arm__core__aarch32__cortex_m__mpu.a(arm_mpu.c.obj)
 .debug_aranges
                0x0000000000000c70       0x90 lib/libc/minimal/liblib__libc__minimal.a(string.c.obj)
 .debug_aranges
                0x0000000000000d00       0x80 lib/libc/minimal/liblib__libc__minimal.a(stdout_console.c.obj)
 .debug_aranges
                0x0000000000000d80       0x18 soc/arm/common/cortex_m/libsoc__arm__common__cortex_m.a(arm_mpu_regions.c.obj)
 .debug_aranges
                0x0000000000000d98       0x38 soc/arm/nordic_nrf/nrf52/libsoc__arm__nordic_nrf__nrf52.a(soc.c.obj)
 .debug_aranges
                0x0000000000000dd0       0xa0 drivers/gpio/libdrivers__gpio.a(gpio_nrfx.c.obj)
 .debug_aranges
                0x0000000000000e70       0x78 drivers/gpio/libdrivers__gpio.a(gpio_handlers.c.obj)
 .debug_aranges
                0x0000000000000ee8       0x48 drivers/serial/libdrivers__serial.a(uart_nrfx_uart.c.obj)
 .debug_aranges
                0x0000000000000f30       0x48 drivers/serial/libdrivers__serial.a(uart_nrfx_uarte.c.obj)
 .debug_aranges
                0x0000000000000f78       0x50 drivers/serial/libdrivers__serial.a(uart_handlers.c.obj)
 .debug_aranges
                0x0000000000000fc8       0x38 ../modules/nordic/lib..__modules__hal__nordic.a(system_nrf52840.c.obj)
 .debug_aranges
                0x0000000000001000       0x30 ../modules/nordic/lib..__modules__hal__nordic.a(nrfx_glue.c.obj)
 .debug_aranges
                0x0000000000001030       0x38 kernel/libkernel.a(device.c.obj)
 .debug_aranges
                0x0000000000001068       0x28 kernel/libkernel.a(errno.c.obj)
 .debug_aranges
                0x0000000000001090       0x40 kernel/libkernel.a(fatal.c.obj)
 .debug_aranges
                0x00000000000010d0       0x28 kernel/libkernel.a(idle.c.obj)
 .debug_aranges
                0x00000000000010f8       0x40 kernel/libkernel.a(init.c.obj)
 .debug_aranges
                0x0000000000001138       0x38 kernel/libkernel.a(mem_slab.c.obj)
 .debug_aranges
                0x0000000000001170       0x58 kernel/libkernel.a(mutex.c.obj)
 .debug_aranges
                0x00000000000011c8       0xc8 kernel/libkernel.a(queue.c.obj)
 .debug_aranges
                0x0000000000001290      0x238 kernel/libkernel.a(sched.c.obj)
 .debug_aranges
                0x00000000000014c8       0x70 kernel/libkernel.a(sem.c.obj)
 .debug_aranges
                0x0000000000001538       0xf8 kernel/libkernel.a(thread.c.obj)
 .debug_aranges
                0x0000000000001630       0x98 kernel/libkernel.a(timeout.c.obj)
 .debug_aranges
                0x00000000000016c8       0x98 kernel/libkernel.a(timer.c.obj)
 .debug_aranges
                0x0000000000001760       0x38 kernel/libkernel.a(futex.c.obj)
 .debug_aranges
                0x0000000000001798       0x50 kernel/libkernel.a(mem_domain.c.obj)
 .debug_aranges
                0x00000000000017e8       0xf8 kernel/libkernel.a(userspace.c.obj)
 .debug_aranges
                0x00000000000018e0       0x50 kernel/libkernel.a(mempool.c.obj)
 .debug_aranges
                0x0000000000001930       0x40 kernel/libkernel.a(userspace_handler.c.obj)
 .debug_aranges
                0x0000000000001970       0x48 kernel/libkernel.a(kheap.c.obj)
 .debug_aranges
                0x00000000000019b8       0x20 CMakeFiles/offsets.dir/arch/arm/core/offsets/offsets.c.obj

.debug_pubnames
 *(SORT_BY_ALIGNMENT(.debug_pubnames))

.debug_info     0x0000000000000000    0x6e133
 *(SORT_BY_ALIGNMENT(.debug_info) SORT_BY_ALIGNMENT(.gnu.linkonce.wi.*))
 .debug_info    0x0000000000000000     0x19ce ../app/libapp.a(led.c.obj)
 .debug_info    0x00000000000019ce     0x12e4 ../app/libapp.a(main.c.obj)
 .debug_info    0x0000000000002cb2     0x12fd libzephyr.a(fdtable.c.obj)
 .debug_info    0x0000000000003faf     0x1bba libzephyr.a(printk.c.obj)
 .debug_info    0x0000000000005b69      0xc5f libzephyr.a(thread_entry.c.obj)
 .debug_info    0x00000000000067c8     0x1fae libzephyr.a(heap.c.obj)
 .debug_info    0x0000000000008776     0x17af libzephyr.a(mutex.c.obj)
 .debug_info    0x0000000000009f25       0x38 libzephyr.a(configs.c.obj)
 .debug_info    0x0000000000009f5d      0x4cc libzephyr.a(log_list.c.obj)
 .debug_info    0x000000000000a429     0x65ca libzephyr.a(log_core.c.obj)
 .debug_info    0x00000000000109f3     0x2009 libzephyr.a(log_msg.c.obj)
 .debug_info    0x00000000000129fc     0x2aad libzephyr.a(log_output.c.obj)
 .debug_info    0x00000000000154a9     0x1908 libzephyr.a(log_backend_uart.c.obj)
 .debug_info    0x0000000000016db1     0x1e19 libzephyr.a(log_backend_rtt.c.obj)
 .debug_info    0x0000000000018bca      0xdb1 libzephyr.a(power.c.obj)
 .debug_info    0x000000000001997b      0xfb9 libzephyr.a(uart_console.c.obj)
 .debug_info    0x000000000001a934     0x27f7 libzephyr.a(nrf_power_clock.c.obj)
 .debug_info    0x000000000001d12b      0xbc4 libzephyr.a(sys_clock_init.c.obj)
 .debug_info    0x000000000001dcef     0x2396 libzephyr.a(nrf_rtc_timer.c.obj)
 .debug_info    0x0000000000020085     0x22b5 libzephyr.a(SEGGER_RTT.c.obj)
 .debug_info    0x000000000002233a      0xc31 libzephyr.a(SEGGER_RTT_zephyr.c.obj)
 .debug_info    0x0000000000022f6b      0x214 arch/common/libarch__common.a(isr_tables.c.obj)
 .debug_info    0x000000000002317f      0xbf4 arch/arch/arm/core/aarch32/libarch__arm__core__aarch32.a(swap.c.obj)
 .debug_info    0x0000000000023d73       0x22 arch/arch/arm/core/aarch32/libarch__arm__core__aarch32.a(swap_helper.S.obj)
 .debug_info    0x0000000000023d95     0x1065 arch/arch/arm/core/aarch32/libarch__arm__core__aarch32.a(irq_manage.c.obj)
 .debug_info    0x0000000000024dfa      0xee3 arch/arch/arm/core/aarch32/libarch__arm__core__aarch32.a(thread.c.obj)
 .debug_info    0x0000000000025cdd       0x22 arch/arch/arm/core/aarch32/libarch__arm__core__aarch32.a(cpu_idle.S.obj)
 .debug_info    0x0000000000025cff     0x11e0 arch/arch/arm/core/aarch32/libarch__arm__core__aarch32.a(fatal.c.obj)
 .debug_info    0x0000000000026edf      0x9a3 arch/arch/arm/core/aarch32/libarch__arm__core__aarch32.a(nmi.c.obj)
 .debug_info    0x0000000000027882       0x26 arch/arch/arm/core/aarch32/libarch__arm__core__aarch32.a(nmi_on_reset.S.obj)
 .debug_info    0x00000000000278a8      0xe8d arch/arch/arm/core/aarch32/libarch__arm__core__aarch32.a(prep_c.c.obj)
 .debug_info    0x0000000000028735       0x26 arch/arch/arm/core/aarch32/libarch__arm__core__aarch32.a(isr_wrapper.S.obj)
 .debug_info    0x000000000002875b       0x22 arch/arch/arm/core/aarch32/libarch__arm__core__aarch32.a(userspace.S.obj)
 .debug_info    0x000000000002877d       0x26 arch/arch/arm/core/aarch32/cortex_m/libarch__arm__core__aarch32__cortex_m.a(reset.S.obj)
 .debug_info    0x00000000000287a3       0x26 arch/arch/arm/core/aarch32/cortex_m/libarch__arm__core__aarch32__cortex_m.a(fault_s.S.obj)
 .debug_info    0x00000000000287c9     0x284c arch/arch/arm/core/aarch32/cortex_m/libarch__arm__core__aarch32__cortex_m.a(fault.c.obj)
 .debug_info    0x000000000002b015       0x26 arch/arch/arm/core/aarch32/cortex_m/libarch__arm__core__aarch32__cortex_m.a(exc_exit.S.obj)
 .debug_info    0x000000000002b03b      0x685 arch/arch/arm/core/aarch32/cortex_m/libarch__arm__core__aarch32__cortex_m.a(irq_init.c.obj)
 .debug_info    0x000000000002b6c0      0xcc6 arch/arch/arm/core/aarch32/cortex_m/libarch__arm__core__aarch32__cortex_m.a(thread_abort.c.obj)
 .debug_info    0x000000000002c386     0x12ff arch/arch/arm/core/aarch32/cortex_m/mpu/libarch__arm__core__aarch32__cortex_m__mpu.a(arm_core_mpu.c.obj)
 .debug_info    0x000000000002d685     0x200d arch/arch/arm/core/aarch32/cortex_m/mpu/libarch__arm__core__aarch32__cortex_m__mpu.a(arm_mpu.c.obj)
 .debug_info    0x000000000002f692      0x70d lib/libc/minimal/liblib__libc__minimal.a(string.c.obj)
 .debug_info    0x000000000002fd9f     0x1a1b lib/libc/minimal/liblib__libc__minimal.a(stdout_console.c.obj)
 .debug_info    0x00000000000317ba      0x1eb soc/arm/common/cortex_m/libsoc__arm__common__cortex_m.a(arm_mpu_regions.c.obj)
 .debug_info    0x00000000000319a5     0x16a4 soc/arm/nordic_nrf/nrf52/libsoc__arm__nordic_nrf__nrf52.a(soc.c.obj)
 .debug_info    0x0000000000033049     0x30a1 drivers/gpio/libdrivers__gpio.a(gpio_nrfx.c.obj)
 .debug_info    0x00000000000360ea     0x44cf drivers/gpio/libdrivers__gpio.a(gpio_handlers.c.obj)
 .debug_info    0x000000000003a5b9     0x24b0 drivers/serial/libdrivers__serial.a(uart_nrfx_uart.c.obj)
 .debug_info    0x000000000003ca69     0x2868 drivers/serial/libdrivers__serial.a(uart_nrfx_uarte.c.obj)
 .debug_info    0x000000000003f2d1     0x2d61 drivers/serial/libdrivers__serial.a(uart_handlers.c.obj)
 .debug_info    0x0000000000042032     0x1580 ../modules/nordic/lib..__modules__hal__nordic.a(system_nrf52840.c.obj)
 .debug_info    0x00000000000435b2      0xc02 ../modules/nordic/lib..__modules__hal__nordic.a(nrfx_glue.c.obj)
 .debug_info    0x00000000000441b4      0xe9a kernel/libkernel.a(device.c.obj)
 .debug_info    0x000000000004504e      0xbfc kernel/libkernel.a(errno.c.obj)
 .debug_info    0x0000000000045c4a     0x1a1d kernel/libkernel.a(fatal.c.obj)
 .debug_info    0x0000000000047667      0xbbc kernel/libkernel.a(idle.c.obj)
 .debug_info    0x0000000000048223     0x1eae kernel/libkernel.a(init.c.obj)
 .debug_info    0x000000000004a0d1     0x11ef kernel/libkernel.a(mem_slab.c.obj)
 .debug_info    0x000000000004b2c0     0x20b8 kernel/libkernel.a(mutex.c.obj)
 .debug_info    0x000000000004d378     0x3bb7 kernel/libkernel.a(queue.c.obj)
 .debug_info    0x0000000000050f2f     0x7a4d kernel/libkernel.a(sched.c.obj)
 .debug_info    0x000000000005897c     0x22e8 kernel/libkernel.a(sem.c.obj)
 .debug_info    0x000000000005ac64     0x3ac5 kernel/libkernel.a(thread.c.obj)
 .debug_info    0x000000000005e729     0x223a kernel/libkernel.a(timeout.c.obj)
 .debug_info    0x0000000000060963     0x303f kernel/libkernel.a(timer.c.obj)
 .debug_info    0x00000000000639a2     0x19c1 kernel/libkernel.a(futex.c.obj)
 .debug_info    0x0000000000065363     0x1591 kernel/libkernel.a(mem_domain.c.obj)
 .debug_info    0x00000000000668f4     0x35ec kernel/libkernel.a(userspace.c.obj)
 .debug_info    0x0000000000069ee0      0xe4a kernel/libkernel.a(mempool.c.obj)
 .debug_info    0x000000000006ad2a     0x1901 kernel/libkernel.a(userspace_handler.c.obj)
 .debug_info    0x000000000006c62b     0x116f kernel/libkernel.a(kheap.c.obj)
 .debug_info    0x000000000006d79a      0x999 CMakeFiles/offsets.dir/arch/arm/core/offsets/offsets.c.obj

.debug_abbrev   0x0000000000000000    0x10e45
 *(SORT_BY_ALIGNMENT(.debug_abbrev))
 .debug_abbrev  0x0000000000000000      0x447 ../app/libapp.a(led.c.obj)
 .debug_abbrev  0x0000000000000447      0x3ca ../app/libapp.a(main.c.obj)
 .debug_abbrev  0x0000000000000811      0x4c0 libzephyr.a(fdtable.c.obj)
 .debug_abbrev  0x0000000000000cd1      0x681 libzephyr.a(printk.c.obj)
 .debug_abbrev  0x0000000000001352      0x2db libzephyr.a(thread_entry.c.obj)
 .debug_abbrev  0x000000000000162d      0x3c3 libzephyr.a(heap.c.obj)
 .debug_abbrev  0x00000000000019f0      0x4ae libzephyr.a(mutex.c.obj)
 .debug_abbrev  0x0000000000001e9e       0x2e libzephyr.a(configs.c.obj)
 .debug_abbrev  0x0000000000001ecc      0x189 libzephyr.a(log_list.c.obj)
 .debug_abbrev  0x0000000000002055      0x913 libzephyr.a(log_core.c.obj)
 .debug_abbrev  0x0000000000002968      0x5df libzephyr.a(log_msg.c.obj)
 .debug_abbrev  0x0000000000002f47      0x617 libzephyr.a(log_output.c.obj)
 .debug_abbrev  0x000000000000355e      0x48b libzephyr.a(log_backend_uart.c.obj)
 .debug_abbrev  0x00000000000039e9      0x5a9 libzephyr.a(log_backend_rtt.c.obj)
 .debug_abbrev  0x0000000000003f92      0x3e2 libzephyr.a(power.c.obj)
 .debug_abbrev  0x0000000000004374      0x3e9 libzephyr.a(uart_console.c.obj)
 .debug_abbrev  0x000000000000475d      0x629 libzephyr.a(nrf_power_clock.c.obj)
 .debug_abbrev  0x0000000000004d86      0x268 libzephyr.a(sys_clock_init.c.obj)
 .debug_abbrev  0x0000000000004fee      0x563 libzephyr.a(nrf_rtc_timer.c.obj)
 .debug_abbrev  0x0000000000005551      0x4bd libzephyr.a(SEGGER_RTT.c.obj)
 .debug_abbrev  0x0000000000005a0e      0x21c libzephyr.a(SEGGER_RTT_zephyr.c.obj)
 .debug_abbrev  0x0000000000005c2a       0xf5 arch/common/libarch__common.a(isr_tables.c.obj)
 .debug_abbrev  0x0000000000005d1f      0x235 arch/arch/arm/core/aarch32/libarch__arm__core__aarch32.a(swap.c.obj)
 .debug_abbrev  0x0000000000005f54       0x12 arch/arch/arm/core/aarch32/libarch__arm__core__aarch32.a(swap_helper.S.obj)
 .debug_abbrev  0x0000000000005f66      0x370 arch/arch/arm/core/aarch32/libarch__arm__core__aarch32.a(irq_manage.c.obj)
 .debug_abbrev  0x00000000000062d6      0x3a3 arch/arch/arm/core/aarch32/libarch__arm__core__aarch32.a(thread.c.obj)
 .debug_abbrev  0x0000000000006679       0x12 arch/arch/arm/core/aarch32/libarch__arm__core__aarch32.a(cpu_idle.S.obj)
 .debug_abbrev  0x000000000000668b      0x41e arch/arch/arm/core/aarch32/libarch__arm__core__aarch32.a(fatal.c.obj)
 .debug_abbrev  0x0000000000006aa9      0x1ca arch/arch/arm/core/aarch32/libarch__arm__core__aarch32.a(nmi.c.obj)
 .debug_abbrev  0x0000000000006c73       0x14 arch/arch/arm/core/aarch32/libarch__arm__core__aarch32.a(nmi_on_reset.S.obj)
 .debug_abbrev  0x0000000000006c87      0x2d3 arch/arch/arm/core/aarch32/libarch__arm__core__aarch32.a(prep_c.c.obj)
 .debug_abbrev  0x0000000000006f5a       0x14 arch/arch/arm/core/aarch32/libarch__arm__core__aarch32.a(isr_wrapper.S.obj)
 .debug_abbrev  0x0000000000006f6e       0x12 arch/arch/arm/core/aarch32/libarch__arm__core__aarch32.a(userspace.S.obj)
 .debug_abbrev  0x0000000000006f80       0x14 arch/arch/arm/core/aarch32/cortex_m/libarch__arm__core__aarch32__cortex_m.a(reset.S.obj)
 .debug_abbrev  0x0000000000006f94       0x14 arch/arch/arm/core/aarch32/cortex_m/libarch__arm__core__aarch32__cortex_m.a(fault_s.S.obj)
 .debug_abbrev  0x0000000000006fa8      0x59c arch/arch/arm/core/aarch32/cortex_m/libarch__arm__core__aarch32__cortex_m.a(fault.c.obj)
 .debug_abbrev  0x0000000000007544       0x14 arch/arch/arm/core/aarch32/cortex_m/libarch__arm__core__aarch32__cortex_m.a(exc_exit.S.obj)
 .debug_abbrev  0x0000000000007558      0x1e6 arch/arch/arm/core/aarch32/cortex_m/libarch__arm__core__aarch32__cortex_m.a(irq_init.c.obj)
 .debug_abbrev  0x000000000000773e      0x2d1 arch/arch/arm/core/aarch32/cortex_m/libarch__arm__core__aarch32__cortex_m.a(thread_abort.c.obj)
 .debug_abbrev  0x0000000000007a0f      0x45c arch/arch/arm/core/aarch32/cortex_m/mpu/libarch__arm__core__aarch32__cortex_m__mpu.a(arm_core_mpu.c.obj)
 .debug_abbrev  0x0000000000007e6b      0x598 arch/arch/arm/core/aarch32/cortex_m/mpu/libarch__arm__core__aarch32__cortex_m__mpu.a(arm_mpu.c.obj)
 .debug_abbrev  0x0000000000008403      0x1a2 lib/libc/minimal/liblib__libc__minimal.a(string.c.obj)
 .debug_abbrev  0x00000000000085a5      0x4e1 lib/libc/minimal/liblib__libc__minimal.a(stdout_console.c.obj)
 .debug_abbrev  0x0000000000008a86       0xf3 soc/arm/common/cortex_m/libsoc__arm__common__cortex_m.a(arm_mpu_regions.c.obj)
 .debug_abbrev  0x0000000000008b79      0x451 soc/arm/nordic_nrf/nrf52/libsoc__arm__nordic_nrf__nrf52.a(soc.c.obj)
 .debug_abbrev  0x0000000000008fca      0x5c9 drivers/gpio/libdrivers__gpio.a(gpio_nrfx.c.obj)
 .debug_abbrev  0x0000000000009593      0x4d2 drivers/gpio/libdrivers__gpio.a(gpio_handlers.c.obj)
 .debug_abbrev  0x0000000000009a65      0x582 drivers/serial/libdrivers__serial.a(uart_nrfx_uart.c.obj)
 .debug_abbrev  0x0000000000009fe7      0x508 drivers/serial/libdrivers__serial.a(uart_nrfx_uarte.c.obj)
 .debug_abbrev  0x000000000000a4ef      0x4be drivers/serial/libdrivers__serial.a(uart_handlers.c.obj)
 .debug_abbrev  0x000000000000a9ad      0x265 ../modules/nordic/lib..__modules__hal__nordic.a(system_nrf52840.c.obj)
 .debug_abbrev  0x000000000000ac12      0x2ee ../modules/nordic/lib..__modules__hal__nordic.a(nrfx_glue.c.obj)
 .debug_abbrev  0x000000000000af00      0x380 kernel/libkernel.a(device.c.obj)
 .debug_abbrev  0x000000000000b280      0x29a kernel/libkernel.a(errno.c.obj)
 .debug_abbrev  0x000000000000b51a      0x4cd kernel/libkernel.a(fatal.c.obj)
 .debug_abbrev  0x000000000000b9e7      0x2f2 kernel/libkernel.a(idle.c.obj)
 .debug_abbrev  0x000000000000bcd9      0x620 kernel/libkernel.a(init.c.obj)
 .debug_abbrev  0x000000000000c2f9      0x3c7 kernel/libkernel.a(mem_slab.c.obj)
 .debug_abbrev  0x000000000000c6c0      0x554 kernel/libkernel.a(mutex.c.obj)
 .debug_abbrev  0x000000000000cc14      0x5d8 kernel/libkernel.a(queue.c.obj)
 .debug_abbrev  0x000000000000d1ec      0x836 kernel/libkernel.a(sched.c.obj)
 .debug_abbrev  0x000000000000da22      0x51e kernel/libkernel.a(sem.c.obj)
 .debug_abbrev  0x000000000000df40      0x78d kernel/libkernel.a(thread.c.obj)
 .debug_abbrev  0x000000000000e6cd      0x594 kernel/libkernel.a(timeout.c.obj)
 .debug_abbrev  0x000000000000ec61      0x57c kernel/libkernel.a(timer.c.obj)
 .debug_abbrev  0x000000000000f1dd      0x45e kernel/libkernel.a(futex.c.obj)
 .debug_abbrev  0x000000000000f63b      0x423 kernel/libkernel.a(mem_domain.c.obj)
 .debug_abbrev  0x000000000000fa5e      0x6b0 kernel/libkernel.a(userspace.c.obj)
 .debug_abbrev  0x000000000001010e      0x36e kernel/libkernel.a(mempool.c.obj)
 .debug_abbrev  0x000000000001047c      0x457 kernel/libkernel.a(userspace_handler.c.obj)
 .debug_abbrev  0x00000000000108d3      0x3b7 kernel/libkernel.a(kheap.c.obj)
 .debug_abbrev  0x0000000000010c8a      0x1bb CMakeFiles/offsets.dir/arch/arm/core/offsets/offsets.c.obj

.debug_line     0x0000000000000000    0x2f78b
 *(SORT_BY_ALIGNMENT(.debug_line) SORT_BY_ALIGNMENT(.debug_line.*) SORT_BY_ALIGNMENT(.debug_line_end))
 .debug_line    0x0000000000000000      0xa36 ../app/libapp.a(led.c.obj)
 .debug_line    0x0000000000000a36      0x8ec ../app/libapp.a(main.c.obj)
 .debug_line    0x0000000000001322      0x948 libzephyr.a(fdtable.c.obj)
 .debug_line    0x0000000000001c6a      0xdea libzephyr.a(printk.c.obj)
 .debug_line    0x0000000000002a54      0x618 libzephyr.a(thread_entry.c.obj)
 .debug_line    0x000000000000306c      0xdf2 libzephyr.a(heap.c.obj)
 .debug_line    0x0000000000003e5e      0x946 libzephyr.a(mutex.c.obj)
 .debug_line    0x00000000000047a4      0x1ce libzephyr.a(configs.c.obj)
 .debug_line    0x0000000000004972      0x249 libzephyr.a(log_list.c.obj)
 .debug_line    0x0000000000004bbb     0x290e libzephyr.a(log_core.c.obj)
 .debug_line    0x00000000000074c9      0xe1e libzephyr.a(log_msg.c.obj)
 .debug_line    0x00000000000082e7      0xdc3 libzephyr.a(log_output.c.obj)
 .debug_line    0x00000000000090aa      0x8cf libzephyr.a(log_backend_uart.c.obj)
 .debug_line    0x0000000000009979      0xae6 libzephyr.a(log_backend_rtt.c.obj)
 .debug_line    0x000000000000a45f      0x756 libzephyr.a(power.c.obj)
 .debug_line    0x000000000000abb5      0x743 libzephyr.a(uart_console.c.obj)
 .debug_line    0x000000000000b2f8      0xe64 libzephyr.a(nrf_power_clock.c.obj)
 .debug_line    0x000000000000c15c      0x528 libzephyr.a(sys_clock_init.c.obj)
 .debug_line    0x000000000000c684      0xf48 libzephyr.a(nrf_rtc_timer.c.obj)
 .debug_line    0x000000000000d5cc     0x166a libzephyr.a(SEGGER_RTT.c.obj)
 .debug_line    0x000000000000ec36      0x4f6 libzephyr.a(SEGGER_RTT_zephyr.c.obj)
 .debug_line    0x000000000000f12c      0x2f6 arch/common/libarch__common.a(isr_tables.c.obj)
 .debug_line    0x000000000000f422      0x5d7 arch/arch/arm/core/aarch32/libarch__arm__core__aarch32.a(swap.c.obj)
 .debug_line    0x000000000000f9f9      0x114 arch/arch/arm/core/aarch32/libarch__arm__core__aarch32.a(swap_helper.S.obj)
 .debug_line    0x000000000000fb0d      0x655 arch/arch/arm/core/aarch32/libarch__arm__core__aarch32.a(irq_manage.c.obj)
 .debug_line    0x0000000000010162      0x844 arch/arch/arm/core/aarch32/libarch__arm__core__aarch32.a(thread.c.obj)
 .debug_line    0x00000000000109a6       0xc9 arch/arch/arm/core/aarch32/libarch__arm__core__aarch32.a(cpu_idle.S.obj)
 .debug_line    0x0000000000010a6f      0x75b arch/arch/arm/core/aarch32/libarch__arm__core__aarch32.a(fatal.c.obj)
 .debug_line    0x00000000000111ca      0x4cc arch/arch/arm/core/aarch32/libarch__arm__core__aarch32.a(nmi.c.obj)
 .debug_line    0x0000000000011696       0x98 arch/arch/arm/core/aarch32/libarch__arm__core__aarch32.a(nmi_on_reset.S.obj)
 .debug_line    0x000000000001172e      0x694 arch/arch/arm/core/aarch32/libarch__arm__core__aarch32.a(prep_c.c.obj)
 .debug_line    0x0000000000011dc2       0xc0 arch/arch/arm/core/aarch32/libarch__arm__core__aarch32.a(isr_wrapper.S.obj)
 .debug_line    0x0000000000011e82      0x141 arch/arch/arm/core/aarch32/libarch__arm__core__aarch32.a(userspace.S.obj)
 .debug_line    0x0000000000011fc3       0xaa arch/arch/arm/core/aarch32/cortex_m/libarch__arm__core__aarch32__cortex_m.a(reset.S.obj)
 .debug_line    0x000000000001206d       0xa1 arch/arch/arm/core/aarch32/cortex_m/libarch__arm__core__aarch32__cortex_m.a(fault_s.S.obj)
 .debug_line    0x000000000001210e     0x1696 arch/arch/arm/core/aarch32/cortex_m/libarch__arm__core__aarch32__cortex_m.a(fault.c.obj)
 .debug_line    0x00000000000137a4       0xab arch/arch/arm/core/aarch32/cortex_m/libarch__arm__core__aarch32__cortex_m.a(exc_exit.S.obj)
 .debug_line    0x000000000001384f      0x3b9 arch/arch/arm/core/aarch32/cortex_m/libarch__arm__core__aarch32__cortex_m.a(irq_init.c.obj)
 .debug_line    0x0000000000013c08      0x649 arch/arch/arm/core/aarch32/cortex_m/libarch__arm__core__aarch32__cortex_m.a(thread_abort.c.obj)
 .debug_line    0x0000000000014251      0x952 arch/arch/arm/core/aarch32/cortex_m/mpu/libarch__arm__core__aarch32__cortex_m__mpu.a(arm_core_mpu.c.obj)
 .debug_line    0x0000000000014ba3      0xfa4 arch/arch/arm/core/aarch32/cortex_m/mpu/libarch__arm__core__aarch32__cortex_m__mpu.a(arm_mpu.c.obj)
 .debug_line    0x0000000000015b47      0x606 lib/libc/minimal/liblib__libc__minimal.a(string.c.obj)
 .debug_line    0x000000000001614d      0xa49 lib/libc/minimal/liblib__libc__minimal.a(stdout_console.c.obj)
 .debug_line    0x0000000000016b96      0x307 soc/arm/common/cortex_m/libsoc__arm__common__cortex_m.a(arm_mpu_regions.c.obj)
 .debug_line    0x0000000000016e9d      0x756 soc/arm/nordic_nrf/nrf52/libsoc__arm__nordic_nrf__nrf52.a(soc.c.obj)
 .debug_line    0x00000000000175f3     0x137d drivers/gpio/libdrivers__gpio.a(gpio_nrfx.c.obj)
 .debug_line    0x0000000000018970     0x1397 drivers/gpio/libdrivers__gpio.a(gpio_handlers.c.obj)
 .debug_line    0x0000000000019d07      0xced drivers/serial/libdrivers__serial.a(uart_nrfx_uart.c.obj)
 .debug_line    0x000000000001a9f4      0xd95 drivers/serial/libdrivers__serial.a(uart_nrfx_uarte.c.obj)
 .debug_line    0x000000000001b789      0xddf drivers/serial/libdrivers__serial.a(uart_handlers.c.obj)
 .debug_line    0x000000000001c568      0x4f8 ../modules/nordic/lib..__modules__hal__nordic.a(system_nrf52840.c.obj)
 .debug_line    0x000000000001ca60      0x6b9 ../modules/nordic/lib..__modules__hal__nordic.a(nrfx_glue.c.obj)
 .debug_line    0x000000000001d119      0x763 kernel/libkernel.a(device.c.obj)
 .debug_line    0x000000000001d87c      0x621 kernel/libkernel.a(errno.c.obj)
 .debug_line    0x000000000001de9d      0xb6c kernel/libkernel.a(fatal.c.obj)
 .debug_line    0x000000000001ea09      0x692 kernel/libkernel.a(idle.c.obj)
 .debug_line    0x000000000001f09b      0xbd4 kernel/libkernel.a(init.c.obj)
 .debug_line    0x000000000001fc6f      0x953 kernel/libkernel.a(mem_slab.c.obj)
 .debug_line    0x00000000000205c2      0xe4d kernel/libkernel.a(mutex.c.obj)
 .debug_line    0x000000000002140f     0x1670 kernel/libkernel.a(queue.c.obj)
 .debug_line    0x0000000000022a7f     0x3736 kernel/libkernel.a(sched.c.obj)
 .debug_line    0x00000000000261b5      0xd90 kernel/libkernel.a(sem.c.obj)
 .debug_line    0x0000000000026f45     0x1653 kernel/libkernel.a(thread.c.obj)
 .debug_line    0x0000000000028598     0x12ff kernel/libkernel.a(timeout.c.obj)
 .debug_line    0x0000000000029897     0x11e4 kernel/libkernel.a(timer.c.obj)
 .debug_line    0x000000000002aa7b      0xafd kernel/libkernel.a(futex.c.obj)
 .debug_line    0x000000000002b578      0xc48 kernel/libkernel.a(mem_domain.c.obj)
 .debug_line    0x000000000002c1c0     0x188e kernel/libkernel.a(userspace.c.obj)
 .debug_line    0x000000000002da4e      0x626 kernel/libkernel.a(mempool.c.obj)
 .debug_line    0x000000000002e074      0x916 kernel/libkernel.a(userspace_handler.c.obj)
 .debug_line    0x000000000002e98a      0x825 kernel/libkernel.a(kheap.c.obj)
 .debug_line    0x000000000002f1af      0x5dc CMakeFiles/offsets.dir/arch/arm/core/offsets/offsets.c.obj

.debug_frame    0x0000000000000000     0x448c
 *(SORT_BY_ALIGNMENT(.debug_frame))
 .debug_frame   0x0000000000000000       0xfc ../app/libapp.a(led.c.obj)
 .debug_frame   0x00000000000000fc       0xa4 ../app/libapp.a(main.c.obj)
 .debug_frame   0x00000000000001a0       0xec libzephyr.a(fdtable.c.obj)
 .debug_frame   0x000000000000028c      0x210 libzephyr.a(printk.c.obj)
 .debug_frame   0x000000000000049c       0x28 libzephyr.a(thread_entry.c.obj)
 .debug_frame   0x00000000000004c4      0x164 libzephyr.a(heap.c.obj)
 .debug_frame   0x0000000000000628       0xd4 libzephyr.a(mutex.c.obj)
 .debug_frame   0x00000000000006fc       0x20 libzephyr.a(configs.c.obj)
 .debug_frame   0x000000000000071c       0x50 libzephyr.a(log_list.c.obj)
 .debug_frame   0x000000000000076c      0x64c libzephyr.a(log_core.c.obj)
 .debug_frame   0x0000000000000db8      0x180 libzephyr.a(log_msg.c.obj)
 .debug_frame   0x0000000000000f38      0x208 libzephyr.a(log_output.c.obj)
 .debug_frame   0x0000000000001140       0x90 libzephyr.a(log_backend_uart.c.obj)
 .debug_frame   0x00000000000011d0       0xc4 libzephyr.a(log_backend_rtt.c.obj)
 .debug_frame   0x0000000000001294       0x8c libzephyr.a(power.c.obj)
 .debug_frame   0x0000000000001320       0x68 libzephyr.a(uart_console.c.obj)
 .debug_frame   0x0000000000001388       0xe0 libzephyr.a(nrf_power_clock.c.obj)
 .debug_frame   0x0000000000001468       0x70 libzephyr.a(sys_clock_init.c.obj)
 .debug_frame   0x00000000000014d8       0xb4 libzephyr.a(nrf_rtc_timer.c.obj)
 .debug_frame   0x000000000000158c      0x3fc libzephyr.a(SEGGER_RTT.c.obj)
 .debug_frame   0x0000000000001988       0x28 libzephyr.a(SEGGER_RTT_zephyr.c.obj)
 .debug_frame   0x00000000000019b0       0x20 arch/arch/arm/core/aarch32/libarch__arm__core__aarch32.a(swap.c.obj)
 .debug_frame   0x00000000000019d0       0x78 arch/arch/arm/core/aarch32/libarch__arm__core__aarch32.a(irq_manage.c.obj)
 .debug_frame   0x0000000000001a48       0x78 arch/arch/arm/core/aarch32/libarch__arm__core__aarch32.a(thread.c.obj)
 .debug_frame   0x0000000000001ac0       0x74 arch/arch/arm/core/aarch32/libarch__arm__core__aarch32.a(fatal.c.obj)
 .debug_frame   0x0000000000001b34       0x2c arch/arch/arm/core/aarch32/libarch__arm__core__aarch32.a(nmi.c.obj)
 .debug_frame   0x0000000000001b60       0x28 arch/arch/arm/core/aarch32/libarch__arm__core__aarch32.a(prep_c.c.obj)
 .debug_frame   0x0000000000001b88       0xb4 arch/arch/arm/core/aarch32/cortex_m/libarch__arm__core__aarch32__cortex_m.a(fault.c.obj)
 .debug_frame   0x0000000000001c3c       0x20 arch/arch/arm/core/aarch32/cortex_m/libarch__arm__core__aarch32__cortex_m.a(irq_init.c.obj)
 .debug_frame   0x0000000000001c5c       0x34 arch/arch/arm/core/aarch32/cortex_m/libarch__arm__core__aarch32__cortex_m.a(thread_abort.c.obj)
 .debug_frame   0x0000000000001c90       0xf4 arch/arch/arm/core/aarch32/cortex_m/mpu/libarch__arm__core__aarch32__cortex_m__mpu.a(arm_core_mpu.c.obj)
 .debug_frame   0x0000000000001d84      0x120 arch/arch/arm/core/aarch32/cortex_m/mpu/libarch__arm__core__aarch32__cortex_m__mpu.a(arm_mpu.c.obj)
 .debug_frame   0x0000000000001ea4      0x168 lib/libc/minimal/liblib__libc__minimal.a(string.c.obj)
 .debug_frame   0x000000000000200c      0x150 lib/libc/minimal/liblib__libc__minimal.a(stdout_console.c.obj)
 .debug_frame   0x000000000000215c       0x50 soc/arm/nordic_nrf/nrf52/libsoc__arm__nordic_nrf__nrf52.a(soc.c.obj)
 .debug_frame   0x00000000000021ac      0x1e0 drivers/gpio/libdrivers__gpio.a(gpio_nrfx.c.obj)
 .debug_frame   0x000000000000238c      0x1dc drivers/gpio/libdrivers__gpio.a(gpio_handlers.c.obj)
 .debug_frame   0x0000000000002568       0xa8 drivers/serial/libdrivers__serial.a(uart_nrfx_uart.c.obj)
 .debug_frame   0x0000000000002610       0xb0 drivers/serial/libdrivers__serial.a(uart_nrfx_uarte.c.obj)
 .debug_frame   0x00000000000026c0       0xf8 drivers/serial/libdrivers__serial.a(uart_handlers.c.obj)
 .debug_frame   0x00000000000027b8       0x58 ../modules/nordic/lib..__modules__hal__nordic.a(system_nrf52840.c.obj)
 .debug_frame   0x0000000000002810       0x54 ../modules/nordic/lib..__modules__hal__nordic.a(nrfx_glue.c.obj)
 .debug_frame   0x0000000000002864       0x8c kernel/libkernel.a(device.c.obj)
 .debug_frame   0x00000000000028f0       0x30 kernel/libkernel.a(errno.c.obj)
 .debug_frame   0x0000000000002920       0x90 kernel/libkernel.a(fatal.c.obj)
 .debug_frame   0x00000000000029b0       0x38 kernel/libkernel.a(idle.c.obj)
 .debug_frame   0x00000000000029e8       0x84 kernel/libkernel.a(init.c.obj)
 .debug_frame   0x0000000000002a6c       0x90 kernel/libkernel.a(mem_slab.c.obj)
 .debug_frame   0x0000000000002afc      0x108 kernel/libkernel.a(mutex.c.obj)
 .debug_frame   0x0000000000002c04      0x268 kernel/libkernel.a(queue.c.obj)
 .debug_frame   0x0000000000002e6c      0x708 kernel/libkernel.a(sched.c.obj)
 .debug_frame   0x0000000000003574      0x158 kernel/libkernel.a(sem.c.obj)
 .debug_frame   0x00000000000036cc      0x2e8 kernel/libkernel.a(thread.c.obj)
 .debug_frame   0x00000000000039b4      0x1bc kernel/libkernel.a(timeout.c.obj)
 .debug_frame   0x0000000000003b70      0x1e4 kernel/libkernel.a(timer.c.obj)
 .debug_frame   0x0000000000003d54       0xa4 kernel/libkernel.a(futex.c.obj)
 .debug_frame   0x0000000000003df8       0xd8 kernel/libkernel.a(mem_domain.c.obj)
 .debug_frame   0x0000000000003ed0      0x328 kernel/libkernel.a(userspace.c.obj)
 .debug_frame   0x00000000000041f8       0xb0 kernel/libkernel.a(mempool.c.obj)
 .debug_frame   0x00000000000042a8       0x94 kernel/libkernel.a(userspace_handler.c.obj)
 .debug_frame   0x000000000000433c       0xd0 kernel/libkernel.a(kheap.c.obj)
 .debug_frame   0x000000000000440c       0x20 CMakeFiles/offsets.dir/arch/arm/core/offsets/offsets.c.obj
 .debug_frame   0x000000000000442c       0x2c /home/rgujju/zephyr-sdk/arm-zephyr-eabi/bin/../lib/gcc/arm-zephyr-eabi/9.2.0/thumb/v7e-m/nofp/libgcc.a(_aeabi_uldivmod.o)
 .debug_frame   0x0000000000004458       0x34 /home/rgujju/zephyr-sdk/arm-zephyr-eabi/bin/../lib/gcc/arm-zephyr-eabi/9.2.0/thumb/v7e-m/nofp/libgcc.a(_udivmoddi4.o)

.debug_str      0x0000000000000000     0xbfb2
 *(SORT_BY_ALIGNMENT(.debug_str))
 .debug_str     0x0000000000000000      0x9c3 ../app/libapp.a(led.c.obj)
                                        0xcac (size before relaxing)
 .debug_str     0x00000000000009c3      0x170 ../app/libapp.a(main.c.obj)
                                        0xa73 (size before relaxing)
 .debug_str     0x0000000000000b33      0x1e5 libzephyr.a(fdtable.c.obj)
                                        0xaa6 (size before relaxing)
 .debug_str     0x0000000000000d18      0x384 libzephyr.a(printk.c.obj)
                                        0xcd4 (size before relaxing)
 .debug_str     0x000000000000109c       0x93 libzephyr.a(thread_entry.c.obj)
                                        0x830 (size before relaxing)
 .debug_str     0x000000000000112f      0x225 libzephyr.a(heap.c.obj)
                                        0x94b (size before relaxing)
 .debug_str     0x0000000000001354      0x451 libzephyr.a(mutex.c.obj)
                                        0xe44 (size before relaxing)
 .debug_str     0x00000000000017a5       0x72 libzephyr.a(configs.c.obj)
                                        0x1c2 (size before relaxing)
 .debug_str     0x0000000000001817      0x1a1 libzephyr.a(log_list.c.obj)
                                        0x415 (size before relaxing)
 .debug_str     0x00000000000019b8      0xbc3 libzephyr.a(log_core.c.obj)
                                       0x1abf (size before relaxing)
 .debug_str     0x000000000000257b      0x1b6 libzephyr.a(log_msg.c.obj)
                                        0xf24 (size before relaxing)
 .debug_str     0x0000000000002731      0x2c4 libzephyr.a(log_output.c.obj)
                                        0xedd (size before relaxing)
 .debug_str     0x00000000000029f5      0x13a libzephyr.a(log_backend_uart.c.obj)
                                        0xe02 (size before relaxing)
 .debug_str     0x0000000000002b2f      0x23d libzephyr.a(log_backend_rtt.c.obj)
                                        0xed7 (size before relaxing)
 .debug_str     0x0000000000002d6c      0x24d libzephyr.a(power.c.obj)
                                        0xbb0 (size before relaxing)
 .debug_str     0x0000000000002fb9       0xe4 libzephyr.a(uart_console.c.obj)
                                        0xa7e (size before relaxing)
 .debug_str     0x000000000000309d      0xeac libzephyr.a(nrf_power_clock.c.obj)
                                       0x18f7 (size before relaxing)
 .debug_str     0x0000000000003f49      0x116 libzephyr.a(sys_clock_init.c.obj)
                                        0x996 (size before relaxing)
 .debug_str     0x000000000000405f      0x791 libzephyr.a(nrf_rtc_timer.c.obj)
                                       0x13e9 (size before relaxing)
 .debug_str     0x00000000000047f0      0x3bb libzephyr.a(SEGGER_RTT.c.obj)
                                        0xdcb (size before relaxing)
 .debug_str     0x0000000000004bab       0x80 libzephyr.a(SEGGER_RTT_zephyr.c.obj)
                                        0x9a0 (size before relaxing)
 .debug_str     0x0000000000004c2b       0xe8 arch/common/libarch__common.a(isr_tables.c.obj)
                                        0x350 (size before relaxing)
 .debug_str     0x0000000000004d13      0x161 arch/arch/arm/core/aarch32/libarch__arm__core__aarch32.a(swap.c.obj)
                                        0x839 (size before relaxing)
 .debug_str     0x0000000000004e74       0x73 arch/arch/arm/core/aarch32/libarch__arm__core__aarch32.a(swap_helper.S.obj)
                                         0xd8 (size before relaxing)
 .debug_str     0x0000000000004ee7      0x1a5 arch/arch/arm/core/aarch32/libarch__arm__core__aarch32.a(irq_manage.c.obj)
                                        0xc97 (size before relaxing)
 .debug_str     0x000000000000508c      0x237 arch/arch/arm/core/aarch32/libarch__arm__core__aarch32.a(thread.c.obj)
                                        0x9d2 (size before relaxing)
 .debug_str     0x00000000000052c3       0x64 arch/arch/arm/core/aarch32/libarch__arm__core__aarch32.a(cpu_idle.S.obj)
                                         0xd5 (size before relaxing)
 .debug_str     0x0000000000005327       0xb4 arch/arch/arm/core/aarch32/libarch__arm__core__aarch32.a(fatal.c.obj)
                                        0xb56 (size before relaxing)
 .debug_str     0x00000000000053db       0x88 arch/arch/arm/core/aarch32/libarch__arm__core__aarch32.a(nmi.c.obj)
                                        0x7a3 (size before relaxing)
 .debug_str     0x0000000000005463       0x68 arch/arch/arm/core/aarch32/libarch__arm__core__aarch32.a(nmi_on_reset.S.obj)
                                         0xd9 (size before relaxing)
 .debug_str     0x00000000000054cb      0x2e7 arch/arch/arm/core/aarch32/libarch__arm__core__aarch32.a(prep_c.c.obj)
                                        0xaec (size before relaxing)
 .debug_str     0x00000000000057b2       0x67 arch/arch/arm/core/aarch32/libarch__arm__core__aarch32.a(isr_wrapper.S.obj)
                                         0xd8 (size before relaxing)
 .debug_str     0x0000000000005819       0x65 arch/arch/arm/core/aarch32/libarch__arm__core__aarch32.a(userspace.S.obj)
                                         0xd6 (size before relaxing)
 .debug_str     0x000000000000587e       0xd8 arch/arch/arm/core/aarch32/cortex_m/libarch__arm__core__aarch32__cortex_m.a(reset.S.obj)
                                         0xe4 (size before relaxing)
 .debug_str     0x0000000000005956       0x6c arch/arch/arm/core/aarch32/cortex_m/libarch__arm__core__aarch32__cortex_m.a(fault_s.S.obj)
                                         0xe6 (size before relaxing)
 .debug_str     0x00000000000059c2      0x1a5 arch/arch/arm/core/aarch32/cortex_m/libarch__arm__core__aarch32__cortex_m.a(fault.c.obj)
                                        0xd03 (size before relaxing)
 .debug_str     0x0000000000005b67       0x6d arch/arch/arm/core/aarch32/cortex_m/libarch__arm__core__aarch32__cortex_m.a(exc_exit.S.obj)
                                         0xe7 (size before relaxing)
 .debug_str     0x0000000000005bd4       0x6d arch/arch/arm/core/aarch32/cortex_m/libarch__arm__core__aarch32__cortex_m.a(irq_init.c.obj)
                                        0x710 (size before relaxing)
 .debug_str     0x0000000000005c41       0xab arch/arch/arm/core/aarch32/cortex_m/libarch__arm__core__aarch32__cortex_m.a(thread_abort.c.obj)
                                        0x89b (size before relaxing)
 .debug_str     0x0000000000005cec      0x30b arch/arch/arm/core/aarch32/cortex_m/mpu/libarch__arm__core__aarch32__cortex_m__mpu.a(arm_core_mpu.c.obj)
                                        0xeb7 (size before relaxing)
 .debug_str     0x0000000000005ff7      0x369 arch/arch/arm/core/aarch32/cortex_m/mpu/libarch__arm__core__aarch32__cortex_m__mpu.a(arm_mpu.c.obj)
                                       0x1172 (size before relaxing)
 .debug_str     0x0000000000006360      0x156 lib/libc/minimal/liblib__libc__minimal.a(string.c.obj)
                                        0x32b (size before relaxing)
 .debug_str     0x00000000000064b6      0x143 lib/libc/minimal/liblib__libc__minimal.a(stdout_console.c.obj)
                                        0xc09 (size before relaxing)
 .debug_str     0x00000000000065f9       0xcf soc/arm/common/cortex_m/libsoc__arm__common__cortex_m.a(arm_mpu_regions.c.obj)
                                        0x338 (size before relaxing)
 .debug_str     0x00000000000066c8      0x3b2 soc/arm/nordic_nrf/nrf52/libsoc__arm__nordic_nrf__nrf52.a(soc.c.obj)
                                       0x11c2 (size before relaxing)
 .debug_str     0x0000000000006a7a      0xb23 drivers/gpio/libdrivers__gpio.a(gpio_nrfx.c.obj)
                                       0x1753 (size before relaxing)
 .debug_str     0x000000000000759d      0x3d6 drivers/gpio/libdrivers__gpio.a(gpio_handlers.c.obj)
                                       0x130f (size before relaxing)
 .debug_str     0x0000000000007973      0xa50 drivers/serial/libdrivers__serial.a(uart_nrfx_uart.c.obj)
                                       0x1661 (size before relaxing)
 .debug_str     0x00000000000083c3      0x801 drivers/serial/libdrivers__serial.a(uart_nrfx_uarte.c.obj)
                                       0x1a2f (size before relaxing)
 .debug_str     0x0000000000008bc4      0x198 drivers/serial/libdrivers__serial.a(uart_handlers.c.obj)
                                        0xf4e (size before relaxing)
 .debug_str     0x0000000000008d5c      0x363 ../modules/nordic/lib..__modules__hal__nordic.a(system_nrf52840.c.obj)
                                        0x97d (size before relaxing)
 .debug_str     0x00000000000090bf      0x211 ../modules/nordic/lib..__modules__hal__nordic.a(nrfx_glue.c.obj)
                                        0x9a5 (size before relaxing)
 .debug_str     0x00000000000092d0      0x1e1 kernel/libkernel.a(device.c.obj)
                                        0x9ca (size before relaxing)
 .debug_str     0x00000000000094b1       0x70 kernel/libkernel.a(errno.c.obj)
                                        0x96d (size before relaxing)
 .debug_str     0x0000000000009521       0xda kernel/libkernel.a(fatal.c.obj)
                                        0xe4b (size before relaxing)
 .debug_str     0x00000000000095fb       0xe3 kernel/libkernel.a(idle.c.obj)
                                        0x954 (size before relaxing)
 .debug_str     0x00000000000096de      0x1e5 kernel/libkernel.a(init.c.obj)
                                       0x144c (size before relaxing)
 .debug_str     0x00000000000098c3      0x14a kernel/libkernel.a(mem_slab.c.obj)
                                        0xae1 (size before relaxing)
 .debug_str     0x0000000000009a0d      0x21c kernel/libkernel.a(mutex.c.obj)
                                       0x1165 (size before relaxing)
 .debug_str     0x0000000000009c29      0x494 kernel/libkernel.a(queue.c.obj)
                                       0x132f (size before relaxing)
 .debug_str     0x000000000000a0bd      0xb0d kernel/libkernel.a(sched.c.obj)
                                       0x1cca (size before relaxing)
 .debug_str     0x000000000000abca      0x16d kernel/libkernel.a(sem.c.obj)
                                       0x10af (size before relaxing)
 .debug_str     0x000000000000ad37      0x595 kernel/libkernel.a(thread.c.obj)
                                       0x1680 (size before relaxing)
 .debug_str     0x000000000000b2cc      0x131 kernel/libkernel.a(timeout.c.obj)
                                        0xd9e (size before relaxing)
 .debug_str     0x000000000000b3fd      0x2e9 kernel/libkernel.a(timer.c.obj)
                                       0x139e (size before relaxing)
 .debug_str     0x000000000000b6e6      0x107 kernel/libkernel.a(futex.c.obj)
                                        0xe79 (size before relaxing)
 .debug_str     0x000000000000b7ed      0x13a kernel/libkernel.a(mem_domain.c.obj)
                                        0xb7a (size before relaxing)
 .debug_str     0x000000000000b927      0x327 kernel/libkernel.a(userspace.c.obj)
                                       0x15a2 (size before relaxing)
 .debug_str     0x000000000000bc4e      0x10e kernel/libkernel.a(mempool.c.obj)
                                        0x9d6 (size before relaxing)
 .debug_str     0x000000000000bd5c      0x11e kernel/libkernel.a(userspace_handler.c.obj)
                                        0xe0e (size before relaxing)
 .debug_str     0x000000000000be7a       0xc6 kernel/libkernel.a(kheap.c.obj)
                                        0xa81 (size before relaxing)
 .debug_str     0x000000000000bf40       0x72 CMakeFiles/offsets.dir/arch/arm/core/offsets/offsets.c.obj
                                        0x785 (size before relaxing)

.debug_loc      0x0000000000000000    0x297c5
 *(SORT_BY_ALIGNMENT(.debug_loc))
 .debug_loc     0x0000000000000000      0x998 ../app/libapp.a(led.c.obj)
 .debug_loc     0x0000000000000998      0x3af ../app/libapp.a(main.c.obj)
 .debug_loc     0x0000000000000d47      0x45b libzephyr.a(fdtable.c.obj)
 .debug_loc     0x00000000000011a2     0x100e libzephyr.a(printk.c.obj)
 .debug_loc     0x00000000000021b0      0x180 libzephyr.a(thread_entry.c.obj)
 .debug_loc     0x0000000000002330     0x1255 libzephyr.a(heap.c.obj)
 .debug_loc     0x0000000000003585      0x7eb libzephyr.a(mutex.c.obj)
 .debug_loc     0x0000000000003d70       0x5c libzephyr.a(log_list.c.obj)
 .debug_loc     0x0000000000003dcc     0x3b12 libzephyr.a(log_core.c.obj)
 .debug_loc     0x00000000000078de      0xf8f libzephyr.a(log_msg.c.obj)
 .debug_loc     0x000000000000886d     0x18f2 libzephyr.a(log_output.c.obj)
 .debug_loc     0x000000000000a15f      0x408 libzephyr.a(log_backend_uart.c.obj)
 .debug_loc     0x000000000000a567      0x548 libzephyr.a(log_backend_rtt.c.obj)
 .debug_loc     0x000000000000aaaf       0x3a libzephyr.a(power.c.obj)
 .debug_loc     0x000000000000aae9      0x248 libzephyr.a(uart_console.c.obj)
 .debug_loc     0x000000000000ad31      0xd58 libzephyr.a(nrf_power_clock.c.obj)
 .debug_loc     0x000000000000ba89       0x4a libzephyr.a(sys_clock_init.c.obj)
 .debug_loc     0x000000000000bad3      0xb8b libzephyr.a(nrf_rtc_timer.c.obj)
 .debug_loc     0x000000000000c65e     0x196c libzephyr.a(SEGGER_RTT.c.obj)
 .debug_loc     0x000000000000dfca       0x25 libzephyr.a(SEGGER_RTT_zephyr.c.obj)
 .debug_loc     0x000000000000dfef       0x3b arch/arch/arm/core/aarch32/libarch__arm__core__aarch32.a(swap.c.obj)
 .debug_loc     0x000000000000e02a      0x1d0 arch/arch/arm/core/aarch32/libarch__arm__core__aarch32.a(irq_manage.c.obj)
 .debug_loc     0x000000000000e1fa      0x4c6 arch/arch/arm/core/aarch32/libarch__arm__core__aarch32.a(thread.c.obj)
 .debug_loc     0x000000000000e6c0      0x238 arch/arch/arm/core/aarch32/libarch__arm__core__aarch32.a(fatal.c.obj)
 .debug_loc     0x000000000000e8f8       0x3c arch/arch/arm/core/aarch32/libarch__arm__core__aarch32.a(prep_c.c.obj)
 .debug_loc     0x000000000000e934      0xbd2 arch/arch/arm/core/aarch32/cortex_m/libarch__arm__core__aarch32__cortex_m.a(fault.c.obj)
 .debug_loc     0x000000000000f506       0x6a arch/arch/arm/core/aarch32/cortex_m/libarch__arm__core__aarch32__cortex_m.a(irq_init.c.obj)
 .debug_loc     0x000000000000f570       0x7e arch/arch/arm/core/aarch32/cortex_m/libarch__arm__core__aarch32__cortex_m.a(thread_abort.c.obj)
 .debug_loc     0x000000000000f5ee      0x399 arch/arch/arm/core/aarch32/cortex_m/mpu/libarch__arm__core__aarch32__cortex_m__mpu.a(arm_core_mpu.c.obj)
 .debug_loc     0x000000000000f987      0xd7f arch/arch/arm/core/aarch32/cortex_m/mpu/libarch__arm__core__aarch32__cortex_m__mpu.a(arm_mpu.c.obj)
 .debug_loc     0x0000000000010706      0xb8e lib/libc/minimal/liblib__libc__minimal.a(string.c.obj)
 .debug_loc     0x0000000000011294      0xa84 lib/libc/minimal/liblib__libc__minimal.a(stdout_console.c.obj)
 .debug_loc     0x0000000000011d18      0x19c soc/arm/nordic_nrf/nrf52/libsoc__arm__nordic_nrf__nrf52.a(soc.c.obj)
 .debug_loc     0x0000000000011eb4     0x17da drivers/gpio/libdrivers__gpio.a(gpio_nrfx.c.obj)
 .debug_loc     0x000000000001368e     0x2a1f drivers/gpio/libdrivers__gpio.a(gpio_handlers.c.obj)
 .debug_loc     0x00000000000160ad      0xb88 drivers/serial/libdrivers__serial.a(uart_nrfx_uart.c.obj)
 .debug_loc     0x0000000000016c35      0xc99 drivers/serial/libdrivers__serial.a(uart_nrfx_uarte.c.obj)
 .debug_loc     0x00000000000178ce     0x1373 drivers/serial/libdrivers__serial.a(uart_handlers.c.obj)
 .debug_loc     0x0000000000018c41       0xc1 ../modules/nordic/lib..__modules__hal__nordic.a(system_nrf52840.c.obj)
 .debug_loc     0x0000000000018d02      0x307 ../modules/nordic/lib..__modules__hal__nordic.a(nrfx_glue.c.obj)
 .debug_loc     0x0000000000019009      0x267 kernel/libkernel.a(device.c.obj)
 .debug_loc     0x0000000000019270       0x84 kernel/libkernel.a(errno.c.obj)
 .debug_loc     0x00000000000192f4      0x312 kernel/libkernel.a(fatal.c.obj)
 .debug_loc     0x0000000000019606       0xcb kernel/libkernel.a(idle.c.obj)
 .debug_loc     0x00000000000196d1      0x25e kernel/libkernel.a(init.c.obj)
 .debug_loc     0x000000000001992f      0x622 kernel/libkernel.a(mem_slab.c.obj)
 .debug_loc     0x0000000000019f51      0xb6d kernel/libkernel.a(mutex.c.obj)
 .debug_loc     0x000000000001aabe     0x1fac kernel/libkernel.a(queue.c.obj)
 .debug_loc     0x000000000001ca6a     0x4c22 kernel/libkernel.a(sched.c.obj)
 .debug_loc     0x000000000002168c      0xd92 kernel/libkernel.a(sem.c.obj)
 .debug_loc     0x000000000002241e     0x18d2 kernel/libkernel.a(thread.c.obj)
 .debug_loc     0x0000000000023cf0      0xeb0 kernel/libkernel.a(timeout.c.obj)
 .debug_loc     0x0000000000024ba0     0x1494 kernel/libkernel.a(timer.c.obj)
 .debug_loc     0x0000000000026034      0x6eb kernel/libkernel.a(futex.c.obj)
 .debug_loc     0x000000000002671f      0x704 kernel/libkernel.a(mem_domain.c.obj)
 .debug_loc     0x0000000000026e23     0x1a8d kernel/libkernel.a(userspace.c.obj)
 .debug_loc     0x00000000000288b0      0x31d kernel/libkernel.a(mempool.c.obj)
 .debug_loc     0x0000000000028bcd      0x77d kernel/libkernel.a(userspace_handler.c.obj)
 .debug_loc     0x000000000002934a      0x47b kernel/libkernel.a(kheap.c.obj)

.debug_macinfo
 *(SORT_BY_ALIGNMENT(.debug_macinfo))

.debug_weaknames
 *(SORT_BY_ALIGNMENT(.debug_weaknames))

.debug_funcnames
 *(SORT_BY_ALIGNMENT(.debug_funcnames))

.debug_typenames
 *(SORT_BY_ALIGNMENT(.debug_typenames))

.debug_varnames
 *(SORT_BY_ALIGNMENT(.debug_varnames))

.debug_pubtypes
 *(SORT_BY_ALIGNMENT(.debug_pubtypes))

.debug_ranges   0x0000000000000000     0xa310
 *(SORT_BY_ALIGNMENT(.debug_ranges))
 .debug_ranges  0x0000000000000000       0x20 arch/arch/arm/core/aarch32/libarch__arm__core__aarch32.a(swap_helper.S.obj)
 .debug_ranges  0x0000000000000020       0x28 arch/arch/arm/core/aarch32/libarch__arm__core__aarch32.a(cpu_idle.S.obj)
 .debug_ranges  0x0000000000000048       0x28 arch/arch/arm/core/aarch32/libarch__arm__core__aarch32.a(userspace.S.obj)
 .debug_ranges  0x0000000000000070      0x168 ../app/libapp.a(led.c.obj)
 .debug_ranges  0x00000000000001d8       0xa8 ../app/libapp.a(main.c.obj)
 .debug_ranges  0x0000000000000280       0xd0 libzephyr.a(fdtable.c.obj)
 .debug_ranges  0x0000000000000350      0x1a0 libzephyr.a(printk.c.obj)
 .debug_ranges  0x00000000000004f0       0x40 libzephyr.a(thread_entry.c.obj)
 .debug_ranges  0x0000000000000530      0x4c8 libzephyr.a(heap.c.obj)
 .debug_ranges  0x00000000000009f8      0x130 libzephyr.a(mutex.c.obj)
 .debug_ranges  0x0000000000000b28       0x10 libzephyr.a(configs.c.obj)
 .debug_ranges  0x0000000000000b38       0x28 libzephyr.a(log_list.c.obj)
 .debug_ranges  0x0000000000000b60     0x1118 libzephyr.a(log_core.c.obj)
 .debug_ranges  0x0000000000001c78      0x1b0 libzephyr.a(log_msg.c.obj)
 .debug_ranges  0x0000000000001e28      0x220 libzephyr.a(log_output.c.obj)
 .debug_ranges  0x0000000000002048       0xd8 libzephyr.a(log_backend_uart.c.obj)
 .debug_ranges  0x0000000000002120      0x1a0 libzephyr.a(log_backend_rtt.c.obj)
 .debug_ranges  0x00000000000022c0       0x48 libzephyr.a(power.c.obj)
 .debug_ranges  0x0000000000002308       0x70 libzephyr.a(uart_console.c.obj)
 .debug_ranges  0x0000000000002378      0x2e0 libzephyr.a(nrf_power_clock.c.obj)
 .debug_ranges  0x0000000000002658       0x30 libzephyr.a(sys_clock_init.c.obj)
 .debug_ranges  0x0000000000002688      0x528 libzephyr.a(nrf_rtc_timer.c.obj)
 .debug_ranges  0x0000000000002bb0      0x140 libzephyr.a(SEGGER_RTT.c.obj)
 .debug_ranges  0x0000000000002cf0       0x10 libzephyr.a(SEGGER_RTT_zephyr.c.obj)
 .debug_ranges  0x0000000000002d00       0x10 arch/arch/arm/core/aarch32/libarch__arm__core__aarch32.a(swap.c.obj)
 .debug_ranges  0x0000000000002d10       0x50 arch/arch/arm/core/aarch32/libarch__arm__core__aarch32.a(irq_manage.c.obj)
 .debug_ranges  0x0000000000002d60       0x58 arch/arch/arm/core/aarch32/libarch__arm__core__aarch32.a(thread.c.obj)
 .debug_ranges  0x0000000000002db8      0x148 arch/arch/arm/core/aarch32/libarch__arm__core__aarch32.a(fatal.c.obj)
 .debug_ranges  0x0000000000002f00       0x10 arch/arch/arm/core/aarch32/libarch__arm__core__aarch32.a(nmi.c.obj)
 .debug_ranges  0x0000000000002f10       0x40 arch/arch/arm/core/aarch32/libarch__arm__core__aarch32.a(prep_c.c.obj)
 .debug_ranges  0x0000000000002f50      0x8b0 arch/arch/arm/core/aarch32/cortex_m/libarch__arm__core__aarch32__cortex_m.a(fault.c.obj)
 .debug_ranges  0x0000000000003800       0x38 arch/arch/arm/core/aarch32/cortex_m/libarch__arm__core__aarch32__cortex_m.a(irq_init.c.obj)
 .debug_ranges  0x0000000000003838       0x28 arch/arch/arm/core/aarch32/cortex_m/libarch__arm__core__aarch32__cortex_m.a(thread_abort.c.obj)
 .debug_ranges  0x0000000000003860       0xc0 arch/arch/arm/core/aarch32/cortex_m/mpu/libarch__arm__core__aarch32__cortex_m__mpu.a(arm_core_mpu.c.obj)
 .debug_ranges  0x0000000000003920      0x370 arch/arch/arm/core/aarch32/cortex_m/mpu/libarch__arm__core__aarch32__cortex_m__mpu.a(arm_mpu.c.obj)
 .debug_ranges  0x0000000000003c90       0x80 lib/libc/minimal/liblib__libc__minimal.a(string.c.obj)
 .debug_ranges  0x0000000000003d10      0x1e8 lib/libc/minimal/liblib__libc__minimal.a(stdout_console.c.obj)
 .debug_ranges  0x0000000000003ef8       0x28 soc/arm/nordic_nrf/nrf52/libsoc__arm__nordic_nrf__nrf52.a(soc.c.obj)
 .debug_ranges  0x0000000000003f20      0x5a8 drivers/gpio/libdrivers__gpio.a(gpio_nrfx.c.obj)
 .debug_ranges  0x00000000000044c8      0xc00 drivers/gpio/libdrivers__gpio.a(gpio_handlers.c.obj)
 .debug_ranges  0x00000000000050c8      0x298 drivers/serial/libdrivers__serial.a(uart_nrfx_uart.c.obj)
 .debug_ranges  0x0000000000005360      0x2a8 drivers/serial/libdrivers__serial.a(uart_nrfx_uarte.c.obj)
 .debug_ranges  0x0000000000005608      0x720 drivers/serial/libdrivers__serial.a(uart_handlers.c.obj)
 .debug_ranges  0x0000000000005d28       0x28 ../modules/nordic/lib..__modules__hal__nordic.a(system_nrf52840.c.obj)
 .debug_ranges  0x0000000000005d50       0x60 ../modules/nordic/lib..__modules__hal__nordic.a(nrfx_glue.c.obj)
 .debug_ranges  0x0000000000005db0       0x70 kernel/libkernel.a(device.c.obj)
 .debug_ranges  0x0000000000005e20       0x30 kernel/libkernel.a(errno.c.obj)
 .debug_ranges  0x0000000000005e50      0x220 kernel/libkernel.a(fatal.c.obj)
 .debug_ranges  0x0000000000006070       0x48 kernel/libkernel.a(idle.c.obj)
 .debug_ranges  0x00000000000060b8      0x190 kernel/libkernel.a(init.c.obj)
 .debug_ranges  0x0000000000006248      0x118 kernel/libkernel.a(mem_slab.c.obj)
 .debug_ranges  0x0000000000006360      0x210 kernel/libkernel.a(mutex.c.obj)
 .debug_ranges  0x0000000000006570      0x708 kernel/libkernel.a(queue.c.obj)
 .debug_ranges  0x0000000000006c78     0x1598 kernel/libkernel.a(sched.c.obj)
 .debug_ranges  0x0000000000008210      0x248 kernel/libkernel.a(sem.c.obj)
 .debug_ranges  0x0000000000008458      0x850 kernel/libkernel.a(thread.c.obj)
 .debug_ranges  0x0000000000008ca8      0x500 kernel/libkernel.a(timeout.c.obj)
 .debug_ranges  0x00000000000091a8      0x3d8 kernel/libkernel.a(timer.c.obj)
 .debug_ranges  0x0000000000009580      0x1e0 kernel/libkernel.a(futex.c.obj)
 .debug_ranges  0x0000000000009760      0x1d8 kernel/libkernel.a(mem_domain.c.obj)
 .debug_ranges  0x0000000000009938      0x6d0 kernel/libkernel.a(userspace.c.obj)
 .debug_ranges  0x000000000000a008       0x70 kernel/libkernel.a(mempool.c.obj)
 .debug_ranges  0x000000000000a078      0x1e0 kernel/libkernel.a(userspace_handler.c.obj)
 .debug_ranges  0x000000000000a258       0xa8 kernel/libkernel.a(kheap.c.obj)
 .debug_ranges  0x000000000000a300       0x10 CMakeFiles/offsets.dir/arch/arm/core/offsets/offsets.c.obj

.debug_macro
 *(SORT_BY_ALIGNMENT(.debug_macro))

.ARM.attributes
                0x0000000000000000       0x31
 *(SORT_BY_ALIGNMENT(.ARM.attributes))
 .ARM.attributes
                0x0000000000000000       0x33 CMakeFiles/app_smem_unaligned_prebuilt.dir/misc/empty_file.c.obj
 .ARM.attributes
                0x0000000000000033       0x2e ../app/libapp.a(led.c.obj)
 .ARM.attributes
                0x0000000000000061       0x33 ../app/libapp.a(syscall.c.obj)
 .ARM.attributes
                0x0000000000000094       0x2e ../app/libapp.a(main.c.obj)
 .ARM.attributes
                0x00000000000000c2       0x33 ../app/libapp.a(utilities.c.obj)
 .ARM.attributes
                0x00000000000000f5       0x2e libzephyr.a(crc32_sw.c.obj)
 .ARM.attributes
                0x0000000000000123       0x2e libzephyr.a(crc16_sw.c.obj)
 .ARM.attributes
                0x0000000000000151       0x2e libzephyr.a(crc8_sw.c.obj)
 .ARM.attributes
                0x000000000000017f       0x2e libzephyr.a(crc7_sw.c.obj)
 .ARM.attributes
                0x00000000000001ad       0x2e libzephyr.a(dec.c.obj)
 .ARM.attributes
                0x00000000000001db       0x2e libzephyr.a(fdtable.c.obj)
 .ARM.attributes
                0x0000000000000209       0x2e libzephyr.a(hex.c.obj)
 .ARM.attributes
                0x0000000000000237       0x2e libzephyr.a(mempool.c.obj)
 .ARM.attributes
                0x0000000000000265       0x2e libzephyr.a(notify.c.obj)
 .ARM.attributes
                0x0000000000000293       0x2e libzephyr.a(printk.c.obj)
 .ARM.attributes
                0x00000000000002c1       0x2e libzephyr.a(onoff.c.obj)
 .ARM.attributes
                0x00000000000002ef       0x2e libzephyr.a(rb.c.obj)
 .ARM.attributes
                0x000000000000031d       0x2e libzephyr.a(sem.c.obj)
 .ARM.attributes
                0x000000000000034b       0x2e libzephyr.a(thread_entry.c.obj)
 .ARM.attributes
                0x0000000000000379       0x2e libzephyr.a(timeutil.c.obj)
 .ARM.attributes
                0x00000000000003a7       0x2e libzephyr.a(work_q.c.obj)
 .ARM.attributes
                0x00000000000003d5       0x2e libzephyr.a(heap.c.obj)
 .ARM.attributes
                0x0000000000000403       0x2e libzephyr.a(heap-validate.c.obj)
 .ARM.attributes
                0x0000000000000431       0x2e libzephyr.a(mutex.c.obj)
 .ARM.attributes
                0x000000000000045f       0x2e libzephyr.a(configs.c.obj)
 .ARM.attributes
                0x000000000000048d       0x33 libzephyr.a(validate_base_addresses.c.obj)
 .ARM.attributes
                0x00000000000004c0       0x33 libzephyr.a(validate_enabled_instances.c.obj)
 .ARM.attributes
                0x00000000000004f3       0x2e libzephyr.a(log_list.c.obj)
 .ARM.attributes
                0x0000000000000521       0x2e libzephyr.a(log_core.c.obj)
 .ARM.attributes
                0x000000000000054f       0x2e libzephyr.a(log_msg.c.obj)
 .ARM.attributes
                0x000000000000057d       0x2e libzephyr.a(log_output.c.obj)
 .ARM.attributes
                0x00000000000005ab       0x2e libzephyr.a(log_backend_uart.c.obj)
 .ARM.attributes
                0x00000000000005d9       0x2e libzephyr.a(log_backend_rtt.c.obj)
 .ARM.attributes
                0x0000000000000607       0x2e libzephyr.a(power.c.obj)
 .ARM.attributes
                0x0000000000000635       0x2e libzephyr.a(policy_residency.c.obj)
 .ARM.attributes
                0x0000000000000663       0x2e libzephyr.a(uart_console.c.obj)
 .ARM.attributes
                0x0000000000000691       0x2e libzephyr.a(nrf_power_clock.c.obj)
 .ARM.attributes
                0x00000000000006bf       0x2e libzephyr.a(sys_clock_init.c.obj)
 .ARM.attributes
                0x00000000000006ed       0x2e libzephyr.a(nrf_rtc_timer.c.obj)
 .ARM.attributes
                0x000000000000071b       0x2e libzephyr.a(SEGGER_RTT.c.obj)
 .ARM.attributes
                0x0000000000000749       0x2e libzephyr.a(SEGGER_RTT_zephyr.c.obj)
 .ARM.attributes
                0x0000000000000777       0x33 arch/common/libarch__common.a(isr_tables.c.obj)
 .ARM.attributes
                0x00000000000007aa       0x33 arch/common/libarch__common.a(sw_isr_common.c.obj)
 .ARM.attributes
                0x00000000000007dd       0x2e arch/arch/arm/core/aarch32/libarch__arm__core__aarch32.a(swap.c.obj)
 .ARM.attributes
                0x000000000000080b       0x1c arch/arch/arm/core/aarch32/libarch__arm__core__aarch32.a(swap_helper.S.obj)
 .ARM.attributes
                0x0000000000000827       0x2e arch/arch/arm/core/aarch32/libarch__arm__core__aarch32.a(irq_manage.c.obj)
 .ARM.attributes
                0x0000000000000855       0x2e arch/arch/arm/core/aarch32/libarch__arm__core__aarch32.a(thread.c.obj)
 .ARM.attributes
                0x0000000000000883       0x1c arch/arch/arm/core/aarch32/libarch__arm__core__aarch32.a(cpu_idle.S.obj)
 .ARM.attributes
                0x000000000000089f       0x2e arch/arch/arm/core/aarch32/libarch__arm__core__aarch32.a(fatal.c.obj)
 .ARM.attributes
                0x00000000000008cd       0x2e arch/arch/arm/core/aarch32/libarch__arm__core__aarch32.a(nmi.c.obj)
 .ARM.attributes
                0x00000000000008fb       0x1c arch/arch/arm/core/aarch32/libarch__arm__core__aarch32.a(nmi_on_reset.S.obj)
 .ARM.attributes
                0x0000000000000917       0x2e arch/arch/arm/core/aarch32/libarch__arm__core__aarch32.a(prep_c.c.obj)
 .ARM.attributes
                0x0000000000000945       0x1c arch/arch/arm/core/aarch32/libarch__arm__core__aarch32.a(isr_wrapper.S.obj)
 .ARM.attributes
                0x0000000000000961       0x1c arch/arch/arm/core/aarch32/libarch__arm__core__aarch32.a(userspace.S.obj)
 .ARM.attributes
                0x000000000000097d       0x1c arch/arch/arm/core/aarch32/cortex_m/libarch__arm__core__aarch32__cortex_m.a(vector_table.S.obj)
 .ARM.attributes
                0x0000000000000999       0x1c arch/arch/arm/core/aarch32/cortex_m/libarch__arm__core__aarch32__cortex_m.a(reset.S.obj)
 .ARM.attributes
                0x00000000000009b5       0x1c arch/arch/arm/core/aarch32/cortex_m/libarch__arm__core__aarch32__cortex_m.a(fault_s.S.obj)
 .ARM.attributes
                0x00000000000009d1       0x2e arch/arch/arm/core/aarch32/cortex_m/libarch__arm__core__aarch32__cortex_m.a(fault.c.obj)
 .ARM.attributes
                0x00000000000009ff       0x1c arch/arch/arm/core/aarch32/cortex_m/libarch__arm__core__aarch32__cortex_m.a(exc_exit.S.obj)
 .ARM.attributes
                0x0000000000000a1b       0x2e arch/arch/arm/core/aarch32/cortex_m/libarch__arm__core__aarch32__cortex_m.a(scb.c.obj)
 .ARM.attributes
                0x0000000000000a49       0x2e arch/arch/arm/core/aarch32/cortex_m/libarch__arm__core__aarch32__cortex_m.a(irq_init.c.obj)
 .ARM.attributes
                0x0000000000000a77       0x2e arch/arch/arm/core/aarch32/cortex_m/libarch__arm__core__aarch32__cortex_m.a(thread_abort.c.obj)
 .ARM.attributes
                0x0000000000000aa5       0x2e arch/arch/arm/core/aarch32/cortex_m/mpu/libarch__arm__core__aarch32__cortex_m__mpu.a(arm_core_mpu.c.obj)
 .ARM.attributes
                0x0000000000000ad3       0x2e arch/arch/arm/core/aarch32/cortex_m/mpu/libarch__arm__core__aarch32__cortex_m__mpu.a(arm_mpu.c.obj)
 .ARM.attributes
                0x0000000000000b01       0x2e lib/libc/minimal/liblib__libc__minimal.a(atoi.c.obj)
 .ARM.attributes
                0x0000000000000b2f       0x2e lib/libc/minimal/liblib__libc__minimal.a(strtol.c.obj)
 .ARM.attributes
                0x0000000000000b5d       0x2e lib/libc/minimal/liblib__libc__minimal.a(strtoul.c.obj)
 .ARM.attributes
                0x0000000000000b8b       0x2e lib/libc/minimal/liblib__libc__minimal.a(malloc.c.obj)
 .ARM.attributes
                0x0000000000000bb9       0x2e lib/libc/minimal/liblib__libc__minimal.a(bsearch.c.obj)
 .ARM.attributes
                0x0000000000000be7       0x2e lib/libc/minimal/liblib__libc__minimal.a(exit.c.obj)
 .ARM.attributes
                0x0000000000000c15       0x2e lib/libc/minimal/liblib__libc__minimal.a(strncasecmp.c.obj)
 .ARM.attributes
                0x0000000000000c43       0x2e lib/libc/minimal/liblib__libc__minimal.a(strstr.c.obj)
 .ARM.attributes
                0x0000000000000c71       0x2e lib/libc/minimal/liblib__libc__minimal.a(string.c.obj)
 .ARM.attributes
                0x0000000000000c9f       0x2e lib/libc/minimal/liblib__libc__minimal.a(strspn.c.obj)
 .ARM.attributes
                0x0000000000000ccd       0x2e lib/libc/minimal/liblib__libc__minimal.a(prf.c.obj)
 .ARM.attributes
                0x0000000000000cfb       0x2e lib/libc/minimal/liblib__libc__minimal.a(stdout_console.c.obj)
 .ARM.attributes
                0x0000000000000d29       0x2e lib/libc/minimal/liblib__libc__minimal.a(sprintf.c.obj)
 .ARM.attributes
                0x0000000000000d57       0x2e lib/libc/minimal/liblib__libc__minimal.a(fprintf.c.obj)
 .ARM.attributes
                0x0000000000000d85       0x2e lib/libc/minimal/liblib__libc__minimal.a(gmtime.c.obj)
 .ARM.attributes
                0x0000000000000db3       0x33 lib/posix/liblib__posix.a(pthread_common.c.obj)
 .ARM.attributes
                0x0000000000000de6       0x33 soc/arm/common/cortex_m/libsoc__arm__common__cortex_m.a(arm_mpu_regions.c.obj)
 .ARM.attributes
                0x0000000000000e19       0x2e soc/arm/nordic_nrf/nrf52/libsoc__arm__nordic_nrf__nrf52.a(soc.c.obj)
 .ARM.attributes
                0x0000000000000e47       0x2e soc/arm/nordic_nrf/nrf52/libsoc__arm__nordic_nrf__nrf52.a(power.c.obj)
 .ARM.attributes
                0x0000000000000e75       0x2e drivers/gpio/libdrivers__gpio.a(gpio_nrfx.c.obj)
 .ARM.attributes
                0x0000000000000ea3       0x2e drivers/gpio/libdrivers__gpio.a(gpio_handlers.c.obj)
 .ARM.attributes
                0x0000000000000ed1       0x2e drivers/serial/libdrivers__serial.a(uart_nrfx_uart.c.obj)
 .ARM.attributes
                0x0000000000000eff       0x2e drivers/serial/libdrivers__serial.a(uart_nrfx_uarte.c.obj)
 .ARM.attributes
                0x0000000000000f2d       0x2e drivers/serial/libdrivers__serial.a(uart_handlers.c.obj)
 .ARM.attributes
                0x0000000000000f5b       0x2e ../modules/nordic/lib..__modules__hal__nordic.a(system_nrf52840.c.obj)
 .ARM.attributes
                0x0000000000000f89       0x2e ../modules/nordic/lib..__modules__hal__nordic.a(nrfx_glue.c.obj)
 .ARM.attributes
                0x0000000000000fb7       0x2e kernel/libkernel.a(device.c.obj)
 .ARM.attributes
                0x0000000000000fe5       0x2e kernel/libkernel.a(errno.c.obj)
 .ARM.attributes
                0x0000000000001013       0x2e kernel/libkernel.a(fatal.c.obj)
 .ARM.attributes
                0x0000000000001041       0x2e kernel/libkernel.a(idle.c.obj)
 .ARM.attributes
                0x000000000000106f       0x2e kernel/libkernel.a(init.c.obj)
 .ARM.attributes
                0x000000000000109d       0x2e kernel/libkernel.a(mem_slab.c.obj)
 .ARM.attributes
                0x00000000000010cb       0x2e kernel/libkernel.a(mutex.c.obj)
 .ARM.attributes
                0x00000000000010f9       0x2e kernel/libkernel.a(queue.c.obj)
 .ARM.attributes
                0x0000000000001127       0x2e kernel/libkernel.a(sched.c.obj)
 .ARM.attributes
                0x0000000000001155       0x2e kernel/libkernel.a(sem.c.obj)
 .ARM.attributes
                0x0000000000001183       0x2e kernel/libkernel.a(thread.c.obj)
 .ARM.attributes
                0x00000000000011b1       0x2e kernel/libkernel.a(timeout.c.obj)
 .ARM.attributes
                0x00000000000011df       0x2e kernel/libkernel.a(timer.c.obj)
 .ARM.attributes
                0x000000000000120d       0x2e kernel/libkernel.a(futex.c.obj)
 .ARM.attributes
                0x000000000000123b       0x2e kernel/libkernel.a(mem_domain.c.obj)
 .ARM.attributes
                0x0000000000001269       0x2e kernel/libkernel.a(userspace.c.obj)
 .ARM.attributes
                0x0000000000001297       0x2e kernel/libkernel.a(mempool.c.obj)
 .ARM.attributes
                0x00000000000012c5       0x2e kernel/libkernel.a(userspace_handler.c.obj)
 .ARM.attributes
                0x00000000000012f3       0x2e kernel/libkernel.a(kheap.c.obj)
 .ARM.attributes
                0x0000000000001321       0x2e CMakeFiles/offsets.dir/arch/arm/core/offsets/offsets.c.obj
 .ARM.attributes
                0x000000000000134f       0x1e /home/rgujju/zephyr-sdk/arm-zephyr-eabi/bin/../lib/gcc/arm-zephyr-eabi/9.2.0/thumb/v7e-m/nofp/libgcc.a(_aeabi_ldivmod.o)
 .ARM.attributes
                0x000000000000136d       0x1e /home/rgujju/zephyr-sdk/arm-zephyr-eabi/bin/../lib/gcc/arm-zephyr-eabi/9.2.0/thumb/v7e-m/nofp/libgcc.a(_aeabi_uldivmod.o)
 .ARM.attributes
                0x000000000000138b       0x2e /home/rgujju/zephyr-sdk/arm-zephyr-eabi/bin/../lib/gcc/arm-zephyr-eabi/9.2.0/thumb/v7e-m/nofp/libgcc.a(_udivmoddi4.o)
 .ARM.attributes
                0x00000000000013b9       0x1e /home/rgujju/zephyr-sdk/arm-zephyr-eabi/bin/../lib/gcc/arm-zephyr-eabi/9.2.0/thumb/v7e-m/nofp/libgcc.a(_dvmd_tls.o)
 *(SORT_BY_ALIGNMENT(.gnu.attributes))

.last_section   0x000000000000b994        0x0
                0x000000000000b994                _flash_used = (LOADADDR (.last_section) - _image_rom_start)
LOAD ../app/libapp.a
LOAD libzephyr.a
LOAD arch/common/libarch__common.a
LOAD arch/arch/arm/core/aarch32/libarch__arm__core__aarch32.a
LOAD arch/arch/arm/core/aarch32/cortex_m/libarch__arm__core__aarch32__cortex_m.a
LOAD arch/arch/arm/core/aarch32/cortex_m/mpu/libarch__arm__core__aarch32__cortex_m__mpu.a
LOAD lib/libc/minimal/liblib__libc__minimal.a
LOAD lib/posix/liblib__posix.a
LOAD soc/arm/common/cortex_m/libsoc__arm__common__cortex_m.a
LOAD soc/arm/nordic_nrf/nrf52/libsoc__arm__nordic_nrf__nrf52.a
LOAD drivers/gpio/libdrivers__gpio.a
LOAD drivers/serial/libdrivers__serial.a
LOAD ../modules/nordic/lib..__modules__hal__nordic.a
LOAD kernel/libkernel.a
LOAD CMakeFiles/offsets.dir/arch/arm/core/offsets/offsets.c.obj
LOAD /home/rgujju/zephyr-sdk/arm-zephyr-eabi/bin/../lib/gcc/arm-zephyr-eabi/9.2.0/thumb/v7e-m/nofp/libgcc.a
OUTPUT(app_smem_unaligned_prebuilt.elf elf32-littlearm)
